
Node1.elf:     file format elf32-avr

Sections:
Idx Name          Size      VMA       LMA       File off  Algn
  0 .data         000002ce  00800100  00002252  000022e6  2**0
                  CONTENTS, ALLOC, LOAD, DATA
  1 .text         00002252  00000000  00000000  00000094  2**1
                  CONTENTS, ALLOC, LOAD, READONLY, CODE
  2 .bss          0000000e  008003ce  008003ce  000025b4  2**0
                  ALLOC
  3 .comment      0000005c  00000000  00000000  000025b4  2**0
                  CONTENTS, READONLY
  4 .note.gnu.avr.deviceinfo 0000003c  00000000  00000000  00002610  2**2
                  CONTENTS, READONLY
  5 .debug_aranges 000003a0  00000000  00000000  0000264c  2**0
                  CONTENTS, READONLY, DEBUGGING
  6 .debug_info   00003799  00000000  00000000  000029ec  2**0
                  CONTENTS, READONLY, DEBUGGING
  7 .debug_abbrev 000016d1  00000000  00000000  00006185  2**0
                  CONTENTS, READONLY, DEBUGGING
  8 .debug_line   00003501  00000000  00000000  00007856  2**0
                  CONTENTS, READONLY, DEBUGGING
  9 .debug_frame  00000a14  00000000  00000000  0000ad58  2**2
                  CONTENTS, READONLY, DEBUGGING
 10 .debug_str    000099e5  00000000  00000000  0000b76c  2**0
                  CONTENTS, READONLY, DEBUGGING
 11 .debug_loc    0000239d  00000000  00000000  00015151  2**0
                  CONTENTS, READONLY, DEBUGGING
 12 .debug_ranges 00000440  00000000  00000000  000174ee  2**0
                  CONTENTS, READONLY, DEBUGGING
 13 .debug_macro  00003af0  00000000  00000000  0001792e  2**0
                  CONTENTS, READONLY, DEBUGGING

Disassembly of section .text:

00000000 <__vectors>:
       0:	c1 c1       	rjmp	.+898    	; 0x384 <__ctors_end>
       2:	00 00       	nop
       4:	db c1       	rjmp	.+950    	; 0x3bc <__bad_interrupt>
       6:	00 00       	nop
       8:	d9 c1       	rjmp	.+946    	; 0x3bc <__bad_interrupt>
       a:	00 00       	nop
       c:	7f c2       	rjmp	.+1278   	; 0x50c <__vector_3>
       e:	00 00       	nop
      10:	d5 c1       	rjmp	.+938    	; 0x3bc <__bad_interrupt>
      12:	00 00       	nop
      14:	d3 c1       	rjmp	.+934    	; 0x3bc <__bad_interrupt>
      16:	00 00       	nop
      18:	d1 c1       	rjmp	.+930    	; 0x3bc <__bad_interrupt>
      1a:	00 00       	nop
      1c:	cf c1       	rjmp	.+926    	; 0x3bc <__bad_interrupt>
      1e:	00 00       	nop
      20:	cd c1       	rjmp	.+922    	; 0x3bc <__bad_interrupt>
      22:	00 00       	nop
      24:	cb c1       	rjmp	.+918    	; 0x3bc <__bad_interrupt>
      26:	00 00       	nop
      28:	c9 c1       	rjmp	.+914    	; 0x3bc <__bad_interrupt>
      2a:	00 00       	nop
      2c:	c7 c1       	rjmp	.+910    	; 0x3bc <__bad_interrupt>
      2e:	00 00       	nop
      30:	c5 c1       	rjmp	.+906    	; 0x3bc <__bad_interrupt>
      32:	00 00       	nop
      34:	c3 c1       	rjmp	.+902    	; 0x3bc <__bad_interrupt>
      36:	00 00       	nop
      38:	c1 c1       	rjmp	.+898    	; 0x3bc <__bad_interrupt>
      3a:	00 00       	nop
      3c:	bf c1       	rjmp	.+894    	; 0x3bc <__bad_interrupt>
      3e:	00 00       	nop
      40:	bd c1       	rjmp	.+890    	; 0x3bc <__bad_interrupt>
      42:	00 00       	nop
      44:	bb c1       	rjmp	.+886    	; 0x3bc <__bad_interrupt>
      46:	00 00       	nop
      48:	b9 c1       	rjmp	.+882    	; 0x3bc <__bad_interrupt>
      4a:	00 00       	nop
      4c:	b7 c1       	rjmp	.+878    	; 0x3bc <__bad_interrupt>
      4e:	00 00       	nop
      50:	b5 c1       	rjmp	.+874    	; 0x3bc <__bad_interrupt>
      52:	00 00       	nop
      54:	b3 c1       	rjmp	.+870    	; 0x3bc <__bad_interrupt>
      56:	00 00       	nop
      58:	b1 c1       	rjmp	.+866    	; 0x3bc <__bad_interrupt>
      5a:	00 00       	nop
      5c:	af c1       	rjmp	.+862    	; 0x3bc <__bad_interrupt>
      5e:	00 00       	nop
      60:	ad c1       	rjmp	.+858    	; 0x3bc <__bad_interrupt>
      62:	00 00       	nop
      64:	ab c1       	rjmp	.+854    	; 0x3bc <__bad_interrupt>
      66:	00 00       	nop
      68:	a9 c1       	rjmp	.+850    	; 0x3bc <__bad_interrupt>
      6a:	00 00       	nop
      6c:	a7 c1       	rjmp	.+846    	; 0x3bc <__bad_interrupt>
	...

00000070 <__trampolines_end>:
      70:	63 64       	ori	r22, 0x43	; 67
      72:	69 6e       	ori	r22, 0xE9	; 233
      74:	6f 70       	andi	r22, 0x0F	; 15
      76:	73 75       	andi	r23, 0x53	; 83
      78:	78 58       	subi	r23, 0x88	; 136
      7a:	5b 00       	.word	0x005b	; ????

0000007c <font8>:
      7c:	ff ff ff ff ff ff ff ff 00 00 00 00 00 00 00 00     ................
      8c:	00 06 5f 5f 06 00 00 00 00 07 07 00 07 07 00 00     ..__............
      9c:	14 7f 7f 14 7f 7f 14 00 24 2e 6b 6b 3a 12 00 00     ........$.kk:...
      ac:	46 66 30 18 0c 66 62 00 30 7a 4f 5d 37 7a 48 00     Ff0..fb.0zO]7zH.
      bc:	04 07 03 00 00 00 00 00 00 1c 3e 63 41 00 00 00     ..........>cA...
      cc:	00 41 63 3e 1c 00 00 00 08 2a 3e 1c 1c 3e 2a 08     .Ac>.....*>..>*.
      dc:	08 08 3e 3e 08 08 00 00 00 a0 e0 60 00 00 00 00     ..>>.......`....
      ec:	08 08 08 08 08 08 00 00 00 00 60 60 00 00 00 00     ..........``....
      fc:	60 30 18 0c 06 03 01 00 3e 7f 59 4d 7f 3e 00 00     `0......>.YM.>..
     10c:	42 42 7f 7f 40 40 00 00 62 73 59 49 6f 66 00 00     BB..@@..bsYIof..
     11c:	22 63 49 49 7f 36 00 00 18 1c 16 13 7f 7f 10 00     "cII.6..........
     12c:	27 67 45 45 7d 39 00 00 3c 7e 4b 49 79 30 00 00     'gEE}9..<~KIy0..
     13c:	03 63 71 19 0f 07 00 00 36 7f 49 49 7f 36 00 00     .cq.....6.II.6..
     14c:	06 4f 49 69 3f 1e 00 00 00 00 6c 6c 00 00 00 00     .OIi?.....ll....
     15c:	00 a0 ec 6c 00 00 00 00 08 1c 36 63 41 00 00 00     ...l......6cA...
     16c:	14 14 14 14 14 14 00 00 18 18 18 7e 3c 18 00 00     ...........~<...
     17c:	02 03 51 59 0f 06 00 00 3e 7f 41 5d 5d 1f 1e 00     ..QY....>.A]]...
     18c:	7c 7e 13 13 7e 7c 00 00 41 7f 7f 49 49 7f 36 00     |~..~|..A..II.6.
     19c:	1c 3e 63 41 41 63 22 00 41 7f 7f 41 63 7f 1c 00     .>cAAc".A..Ac...
     1ac:	41 7f 7f 49 5d 41 63 00 41 7f 7f 49 1d 01 03 00     A..I]Ac.A..I....
     1bc:	1c 3e 63 41 51 73 72 00 7f 7f 08 08 7f 7f 00 00     .>cAQsr.........
     1cc:	00 41 7f 7f 41 00 00 00 30 70 40 41 7f 3f 01 00     .A..A...0p@A.?..
     1dc:	41 7f 7f 08 1c 77 63 00 41 7f 7f 41 40 60 70 00     A....wc.A..A@`p.
     1ec:	7f 7f 06 0c 06 7f 7f 00 7f 7f 06 0c 18 7f 7f 00     ................
     1fc:	1c 3e 63 41 63 3e 1c 00 41 7f 7f 49 09 0f 06 00     .>cAc>..A..I....
     20c:	1e 3f 21 71 7f 5e 00 00 41 7f 7f 19 39 6f 46 00     .?!q.^..A...9oF.
     21c:	26 67 4d 59 7b 32 00 00 03 41 7f 7f 41 03 00 00     &gMY{2...A..A...
     22c:	7f 7f 40 40 7f 7f 00 00 1f 3f 60 60 3f 1f 00 00     ..@@.....?``?...
     23c:	7f 7f 30 18 30 7f 7f 00 63 77 1c 08 1c 77 63 00     ..0.0...cw...wc.
     24c:	07 4f 78 78 4f 07 00 00 67 73 59 4d 47 63 71 00     .OxxO...gsYMGcq.
     25c:	00 7f 7f 41 41 00 00 00 01 03 06 0c 18 30 60 00     ...AA........0`.
     26c:	00 41 41 7f 7f 00 00 00 08 0c 06 03 06 0c 08 00     .AA.............
     27c:	80 80 80 80 80 80 80 80 00 00 03 07 04 00 00 00     ................
     28c:	20 74 54 54 3c 78 40 00 41 3f 7f 44 44 7c 38 00      tTT<x@.A?.DD|8.
     29c:	38 7c 44 44 6c 28 00 00 30 78 48 49 3f 7f 40 00     8|DDl(..0xHI?.@.
     2ac:	38 7c 54 54 5c 18 00 00 48 7e 7f 49 03 02 00 00     8|TT\...H~.I....
     2bc:	98 bc a4 a4 f8 7c 04 00 41 7f 7f 08 04 7c 78 00     .....|..A....|x.
     2cc:	00 44 7d 7d 40 00 00 00 40 c4 84 fd 7d 00 00 00     .D}}@...@...}...
     2dc:	41 7f 7f 10 38 6c 44 00 00 41 7f 7f 40 00 00 00     A...8lD..A..@...
     2ec:	7c 7c 0c 18 0c 7c 78 00 7c 7c 04 04 7c 78 00 00     ||...|x.||..|x..
     2fc:	38 7c 44 44 7c 38 00 00 84 fc f8 a4 24 3c 18 00     8|DD|8......$<..
     30c:	18 3c 24 a4 f8 fc 84 00 44 7c 78 44 1c 18 00 00     .<$.....D|xD....
     31c:	48 5c 54 54 74 24 00 00 00 04 3e 7f 44 24 00 00     H\TTt$....>.D$..
     32c:	3c 7c 40 40 3c 7c 40 00 1c 3c 60 60 3c 1c 00 00     <|@@<|@..<``<...
     33c:	3c 7c 60 30 60 7c 3c 00 44 6c 38 10 38 6c 44 00     <|`0`|<.Dl8.8lD.
     34c:	9c bc a0 a0 fc 7c 00 00 4c 64 74 5c 4c 64 00 00     .....|..Ldt\Ld..
     35c:	08 08 3e 77 41 41 00 00 00 00 00 77 77 00 00 00     ..>wAA.....ww...
     36c:	41 41 77 3e 08 08 00 00 02 03 01 03 02 03 01 00     AAw>............
     37c:	18 18 18 7e 3c 18 00 00                             ...~<...

00000384 <__ctors_end>:
     384:	11 24       	eor	r1, r1
     386:	1f be       	out	0x3f, r1	; 63
     388:	cf ef       	ldi	r28, 0xFF	; 255
     38a:	d4 e0       	ldi	r29, 0x04	; 4
     38c:	de bf       	out	0x3e, r29	; 62
     38e:	cd bf       	out	0x3d, r28	; 61

00000390 <__do_copy_data>:
     390:	13 e0       	ldi	r17, 0x03	; 3
     392:	a0 e0       	ldi	r26, 0x00	; 0
     394:	b1 e0       	ldi	r27, 0x01	; 1
     396:	e2 e5       	ldi	r30, 0x52	; 82
     398:	f2 e2       	ldi	r31, 0x22	; 34
     39a:	02 c0       	rjmp	.+4      	; 0x3a0 <__do_copy_data+0x10>
     39c:	05 90       	lpm	r0, Z+
     39e:	0d 92       	st	X+, r0
     3a0:	ae 3c       	cpi	r26, 0xCE	; 206
     3a2:	b1 07       	cpc	r27, r17
     3a4:	d9 f7       	brne	.-10     	; 0x39c <__do_copy_data+0xc>

000003a6 <__do_clear_bss>:
     3a6:	23 e0       	ldi	r18, 0x03	; 3
     3a8:	ae ec       	ldi	r26, 0xCE	; 206
     3aa:	b3 e0       	ldi	r27, 0x03	; 3
     3ac:	01 c0       	rjmp	.+2      	; 0x3b0 <.do_clear_bss_start>

000003ae <.do_clear_bss_loop>:
     3ae:	1d 92       	st	X+, r1

000003b0 <.do_clear_bss_start>:
     3b0:	ac 3d       	cpi	r26, 0xDC	; 220
     3b2:	b2 07       	cpc	r27, r18
     3b4:	e1 f7       	brne	.-8      	; 0x3ae <.do_clear_bss_loop>
     3b6:	cb d1       	rcall	.+918    	; 0x74e <main>
     3b8:	0c 94 27 11 	jmp	0x224e	; 0x224e <_exit>

000003bc <__bad_interrupt>:
     3bc:	21 ce       	rjmp	.-958    	; 0x0 <__vectors>

000003be <ADC_read>:
uint8_t ADC_read(ADC_channel channel){ 

	volatile char * a = (char*) ADC_MEM_ADR; // Create pointer mapped to ADC
	uint8_t result;

	switch(channel){
     3be:	82 30       	cpi	r24, 0x02	; 2
     3c0:	99 f0       	breq	.+38     	; 0x3e8 <ADC_read+0x2a>
     3c2:	18 f4       	brcc	.+6      	; 0x3ca <ADC_read+0xc>
     3c4:	81 30       	cpi	r24, 0x01	; 1
     3c6:	31 f0       	breq	.+12     	; 0x3d4 <ADC_read+0x16>
     3c8:	2d c0       	rjmp	.+90     	; 0x424 <__LOCK_REGION_LENGTH__+0x24>
     3ca:	83 30       	cpi	r24, 0x03	; 3
     3cc:	b9 f0       	breq	.+46     	; 0x3fc <ADC_read+0x3e>
     3ce:	84 30       	cpi	r24, 0x04	; 4
     3d0:	f9 f0       	breq	.+62     	; 0x410 <__LOCK_REGION_LENGTH__+0x10>
     3d2:	28 c0       	rjmp	.+80     	; 0x424 <__LOCK_REGION_LENGTH__+0x24>
		case CHANNEL_1: // Read X-input joystick
			*a = 4;
     3d4:	e0 e0       	ldi	r30, 0x00	; 0
     3d6:	f4 e1       	ldi	r31, 0x14	; 20
     3d8:	84 e0       	ldi	r24, 0x04	; 4
     3da:	80 83       	st	Z, r24
	#else
		//round up by default
		__ticks_dc = (uint32_t)(ceil(fabs(__tmp)));
	#endif

	__builtin_avr_delay_cycles(__ticks_dc);
     3dc:	82 e6       	ldi	r24, 0x62	; 98
     3de:	8a 95       	dec	r24
     3e0:	f1 f7       	brne	.-4      	; 0x3de <ADC_read+0x20>
     3e2:	00 00       	nop
			_delay_us(60);
			result =*a;
     3e4:	80 81       	ld	r24, Z
			break;
     3e6:	08 95       	ret

		case CHANNEL_2: // Read Y-input joystick
			*a = 5;
     3e8:	e0 e0       	ldi	r30, 0x00	; 0
     3ea:	f4 e1       	ldi	r31, 0x14	; 20
     3ec:	85 e0       	ldi	r24, 0x05	; 5
     3ee:	80 83       	st	Z, r24
     3f0:	82 e6       	ldi	r24, 0x62	; 98
     3f2:	8a 95       	dec	r24
     3f4:	f1 f7       	brne	.-4      	; 0x3f2 <ADC_read+0x34>
     3f6:	00 00       	nop
			_delay_us(60);
			result =*a;
     3f8:	80 81       	ld	r24, Z
			break;
     3fa:	08 95       	ret

		case CHANNEL_3: // Read left slider
			*a = 6;
     3fc:	e0 e0       	ldi	r30, 0x00	; 0
     3fe:	f4 e1       	ldi	r31, 0x14	; 20
     400:	86 e0       	ldi	r24, 0x06	; 6
     402:	80 83       	st	Z, r24
     404:	82 e6       	ldi	r24, 0x62	; 98
     406:	8a 95       	dec	r24
     408:	f1 f7       	brne	.-4      	; 0x406 <__LOCK_REGION_LENGTH__+0x6>
     40a:	00 00       	nop
			_delay_us(60);
			result =*a;
     40c:	80 81       	ld	r24, Z
			break;
     40e:	08 95       	ret

		case CHANNEL_4: // Read right slider
			*a = 7;
     410:	e0 e0       	ldi	r30, 0x00	; 0
     412:	f4 e1       	ldi	r31, 0x14	; 20
     414:	87 e0       	ldi	r24, 0x07	; 7
     416:	80 83       	st	Z, r24
     418:	82 e6       	ldi	r24, 0x62	; 98
     41a:	8a 95       	dec	r24
     41c:	f1 f7       	brne	.-4      	; 0x41a <__LOCK_REGION_LENGTH__+0x1a>
     41e:	00 00       	nop
			_delay_us(60);
			result =*a;
     420:	80 81       	ld	r24, Z
			break;
     422:	08 95       	ret

		default:
			result = 0;
     424:	80 e0       	ldi	r24, 0x00	; 0
			break;
	}
	return result;
     426:	08 95       	ret

00000428 <CAN_init>:
	printf("CAN msg data: ");
	for (int i = 0; i < msg->length; i++){
		printf("%x",msg->data[i]);
	}
	printf("\n");
}
     428:	1b d2       	rcall	.+1078   	; 0x860 <mcp2515_init>
     42a:	f8 94       	cli
     42c:	8b b7       	in	r24, 0x3b	; 59
     42e:	80 62       	ori	r24, 0x20	; 32
     430:	8b bf       	out	0x3b, r24	; 59
     432:	78 94       	sei
     434:	08 95       	ret

00000436 <CAN_message_send>:
     436:	0f 93       	push	r16
     438:	1f 93       	push	r17
     43a:	cf 93       	push	r28
     43c:	8c 01       	movw	r16, r24
     43e:	fc 01       	movw	r30, r24
     440:	60 81       	ld	r22, Z
     442:	71 81       	ldd	r23, Z+1	; 0x01
     444:	76 95       	lsr	r23
     446:	67 95       	ror	r22
     448:	76 95       	lsr	r23
     44a:	67 95       	ror	r22
     44c:	76 95       	lsr	r23
     44e:	67 95       	ror	r22
     450:	81 e3       	ldi	r24, 0x31	; 49
     452:	ce d1       	rcall	.+924    	; 0x7f0 <mcp2515_write>
     454:	f8 01       	movw	r30, r16
     456:	60 81       	ld	r22, Z
     458:	62 95       	swap	r22
     45a:	66 0f       	add	r22, r22
     45c:	60 7e       	andi	r22, 0xE0	; 224
     45e:	82 e3       	ldi	r24, 0x32	; 50
     460:	c7 d1       	rcall	.+910    	; 0x7f0 <mcp2515_write>
     462:	f8 01       	movw	r30, r16
     464:	62 81       	ldd	r22, Z+2	; 0x02
     466:	85 e3       	ldi	r24, 0x35	; 53
     468:	c3 d1       	rcall	.+902    	; 0x7f0 <mcp2515_write>
     46a:	f8 01       	movw	r30, r16
     46c:	82 81       	ldd	r24, Z+2	; 0x02
     46e:	88 23       	and	r24, r24
     470:	69 f0       	breq	.+26     	; 0x48c <CAN_message_send+0x56>
     472:	c0 e0       	ldi	r28, 0x00	; 0
     474:	f8 01       	movw	r30, r16
     476:	ec 0f       	add	r30, r28
     478:	f1 1d       	adc	r31, r1
     47a:	63 81       	ldd	r22, Z+3	; 0x03
     47c:	86 e3       	ldi	r24, 0x36	; 54
     47e:	8c 0f       	add	r24, r28
     480:	b7 d1       	rcall	.+878    	; 0x7f0 <mcp2515_write>
     482:	cf 5f       	subi	r28, 0xFF	; 255
     484:	f8 01       	movw	r30, r16
     486:	82 81       	ldd	r24, Z+2	; 0x02
     488:	c8 17       	cp	r28, r24
     48a:	a0 f3       	brcs	.-24     	; 0x474 <CAN_message_send+0x3e>
     48c:	81 e8       	ldi	r24, 0x81	; 129
     48e:	c3 d1       	rcall	.+902    	; 0x816 <mcp2515_request_to_send>
     490:	cf 91       	pop	r28
     492:	1f 91       	pop	r17
     494:	0f 91       	pop	r16
     496:	08 95       	ret

00000498 <CAN_receive>:
     498:	0f 93       	push	r16
     49a:	1f 93       	push	r17
     49c:	cf 93       	push	r28
     49e:	8c 01       	movw	r16, r24
     4a0:	80 91 ce 03 	lds	r24, 0x03CE	; 0x8003ce <__data_end>
     4a4:	88 23       	and	r24, r24
     4a6:	71 f1       	breq	.+92     	; 0x504 <__stack+0x5>
     4a8:	81 e6       	ldi	r24, 0x61	; 97
     4aa:	97 d1       	rcall	.+814    	; 0x7da <mcp2515_read>
     4ac:	c8 2f       	mov	r28, r24
     4ae:	82 e6       	ldi	r24, 0x62	; 98
     4b0:	94 d1       	rcall	.+808    	; 0x7da <mcp2515_read>
     4b2:	2c 2f       	mov	r18, r28
     4b4:	30 e0       	ldi	r19, 0x00	; 0
     4b6:	22 0f       	add	r18, r18
     4b8:	33 1f       	adc	r19, r19
     4ba:	22 0f       	add	r18, r18
     4bc:	33 1f       	adc	r19, r19
     4be:	22 0f       	add	r18, r18
     4c0:	33 1f       	adc	r19, r19
     4c2:	82 95       	swap	r24
     4c4:	86 95       	lsr	r24
     4c6:	87 70       	andi	r24, 0x07	; 7
     4c8:	28 2b       	or	r18, r24
     4ca:	f8 01       	movw	r30, r16
     4cc:	31 83       	std	Z+1, r19	; 0x01
     4ce:	20 83       	st	Z, r18
     4d0:	85 e6       	ldi	r24, 0x65	; 101
     4d2:	83 d1       	rcall	.+774    	; 0x7da <mcp2515_read>
     4d4:	f8 01       	movw	r30, r16
     4d6:	82 83       	std	Z+2, r24	; 0x02
     4d8:	88 23       	and	r24, r24
     4da:	69 f0       	breq	.+26     	; 0x4f6 <CAN_receive+0x5e>
     4dc:	c0 e0       	ldi	r28, 0x00	; 0
     4de:	86 e6       	ldi	r24, 0x66	; 102
     4e0:	8c 0f       	add	r24, r28
     4e2:	7b d1       	rcall	.+758    	; 0x7da <mcp2515_read>
     4e4:	f8 01       	movw	r30, r16
     4e6:	ec 0f       	add	r30, r28
     4e8:	f1 1d       	adc	r31, r1
     4ea:	83 83       	std	Z+3, r24	; 0x03
     4ec:	cf 5f       	subi	r28, 0xFF	; 255
     4ee:	f8 01       	movw	r30, r16
     4f0:	82 81       	ldd	r24, Z+2	; 0x02
     4f2:	c8 17       	cp	r28, r24
     4f4:	a0 f3       	brcs	.-24     	; 0x4de <CAN_receive+0x46>
     4f6:	40 e0       	ldi	r20, 0x00	; 0
     4f8:	61 e0       	ldi	r22, 0x01	; 1
     4fa:	8c e2       	ldi	r24, 0x2C	; 44
     4fc:	90 d1       	rcall	.+800    	; 0x81e <mcp2515_bit_modify>
     4fe:	10 92 ce 03 	sts	0x03CE, r1	; 0x8003ce <__data_end>
     502:	81 e0       	ldi	r24, 0x01	; 1
     504:	cf 91       	pop	r28
     506:	1f 91       	pop	r17
     508:	0f 91       	pop	r16
     50a:	08 95       	ret

0000050c <__vector_3>:

ISR(INT2_vect) // Interrupt handler
{
     50c:	1f 92       	push	r1
     50e:	0f 92       	push	r0
     510:	0f b6       	in	r0, 0x3f	; 63
     512:	0f 92       	push	r0
     514:	11 24       	eor	r1, r1
     516:	8f 93       	push	r24
	CAN_int_flag = 1;
     518:	81 e0       	ldi	r24, 0x01	; 1
     51a:	80 93 ce 03 	sts	0x03CE, r24	; 0x8003ce <__data_end>
}
     51e:	8f 91       	pop	r24
     520:	0f 90       	pop	r0
     522:	0f be       	out	0x3f, r0	; 63
     524:	0f 90       	pop	r0
     526:	1f 90       	pop	r1
     528:	18 95       	reti

0000052a <send_all_slider>:
	msg.data[0] = x;
	msg.data[1] = y;
	CAN_message_send(&msg);
}

void send_all_slider(uint8_t msg_id){
     52a:	ff 92       	push	r15
     52c:	0f 93       	push	r16
     52e:	1f 93       	push	r17
     530:	cf 93       	push	r28
     532:	df 93       	push	r29
     534:	cd b7       	in	r28, 0x3d	; 61
     536:	de b7       	in	r29, 0x3e	; 62
     538:	2b 97       	sbiw	r28, 0x0b	; 11
     53a:	0f b6       	in	r0, 0x3f	; 63
     53c:	f8 94       	cli
     53e:	de bf       	out	0x3e, r29	; 62
     540:	0f be       	out	0x3f, r0	; 63
     542:	cd bf       	out	0x3d, r28	; 61
     544:	18 2f       	mov	r17, r24
	uint8_t JOY_x  = JOY_get_x();
     546:	df d0       	rcall	.+446    	; 0x706 <JOY_get_x>
     548:	f8 2e       	mov	r15, r24
	uint8_t slider = right_slider_pos();
     54a:	fe d0       	rcall	.+508    	; 0x748 <right_slider_pos>
     54c:	08 2f       	mov	r16, r24
	uint8_t JOY_button = JOY_get_button();
     54e:	d7 d0       	rcall	.+430    	; 0x6fe <JOY_get_button>
     550:	21 2f       	mov	r18, r17
	//printf("X: %d \t slider: %d \t B: %d \n", x,slider,JOY_button);
	CAN_msg msg;
	msg.id = msg_id;
     552:	30 e0       	ldi	r19, 0x00	; 0
     554:	3a 83       	std	Y+2, r19	; 0x02
     556:	29 83       	std	Y+1, r18	; 0x01
     558:	93 e0       	ldi	r25, 0x03	; 3
	msg.length = 3;
     55a:	9b 83       	std	Y+3, r25	; 0x03
     55c:	fc 82       	std	Y+4, r15	; 0x04
	msg.data[0] = JOY_x;
     55e:	0d 83       	std	Y+5, r16	; 0x05
	msg.data[1] = slider;
     560:	8e 83       	std	Y+6, r24	; 0x06
	msg.data[2] = JOY_button;
	CAN_message_send(&msg);
     562:	ce 01       	movw	r24, r28
     564:	01 96       	adiw	r24, 0x01	; 1
     566:	67 df       	rcall	.-306    	; 0x436 <CAN_message_send>
     568:	2b 96       	adiw	r28, 0x0b	; 11
}
     56a:	0f b6       	in	r0, 0x3f	; 63
     56c:	f8 94       	cli
     56e:	de bf       	out	0x3e, r29	; 62
     570:	0f be       	out	0x3f, r0	; 63
     572:	cd bf       	out	0x3d, r28	; 61
     574:	df 91       	pop	r29
     576:	cf 91       	pop	r28
     578:	1f 91       	pop	r17
     57a:	0f 91       	pop	r16
     57c:	ff 90       	pop	r15
     57e:	08 95       	ret

00000580 <send_all_joy>:
     580:	ff 92       	push	r15

void send_all_joy(uint8_t msg_id){
     582:	0f 93       	push	r16
     584:	1f 93       	push	r17
     586:	cf 93       	push	r28
     588:	df 93       	push	r29
     58a:	cd b7       	in	r28, 0x3d	; 61
     58c:	de b7       	in	r29, 0x3e	; 62
     58e:	2b 97       	sbiw	r28, 0x0b	; 11
     590:	0f b6       	in	r0, 0x3f	; 63
     592:	f8 94       	cli
     594:	de bf       	out	0x3e, r29	; 62
     596:	0f be       	out	0x3f, r0	; 63
     598:	cd bf       	out	0x3d, r28	; 61
     59a:	18 2f       	mov	r17, r24
	uint8_t x  = JOY_get_x();
     59c:	b4 d0       	rcall	.+360    	; 0x706 <JOY_get_x>
     59e:	f8 2e       	mov	r15, r24
	uint8_t y = JOY_get_y();
     5a0:	ba d0       	rcall	.+372    	; 0x716 <JOY_get_y>
     5a2:	08 2f       	mov	r16, r24
	uint8_t JOY_button = JOY_get_button();
     5a4:	ac d0       	rcall	.+344    	; 0x6fe <JOY_get_button>
     5a6:	21 2f       	mov	r18, r17
	//printf("X: %d \t Y: %d \t B: %d \n", x,y,JOY_button);
	CAN_msg msg;
	msg.id = msg_id;
     5a8:	30 e0       	ldi	r19, 0x00	; 0
     5aa:	3a 83       	std	Y+2, r19	; 0x02
     5ac:	29 83       	std	Y+1, r18	; 0x01
     5ae:	93 e0       	ldi	r25, 0x03	; 3
	msg.length = 3;
     5b0:	9b 83       	std	Y+3, r25	; 0x03
     5b2:	fc 82       	std	Y+4, r15	; 0x04
	msg.data[0] = x;
     5b4:	0d 83       	std	Y+5, r16	; 0x05
	msg.data[1] = y;
     5b6:	8e 83       	std	Y+6, r24	; 0x06
	msg.data[2] = JOY_button;
	CAN_message_send(&msg);
     5b8:	ce 01       	movw	r24, r28
     5ba:	01 96       	adiw	r24, 0x01	; 1
     5bc:	3c df       	rcall	.-392    	; 0x436 <CAN_message_send>
     5be:	2b 96       	adiw	r28, 0x0b	; 11
     5c0:	0f b6       	in	r0, 0x3f	; 63
     5c2:	f8 94       	cli
     5c4:	de bf       	out	0x3e, r29	; 62
     5c6:	0f be       	out	0x3f, r0	; 63
     5c8:	cd bf       	out	0x3d, r28	; 61
     5ca:	df 91       	pop	r29
     5cc:	cf 91       	pop	r28
     5ce:	1f 91       	pop	r17
     5d0:	0f 91       	pop	r16
     5d2:	ff 90       	pop	r15
     5d4:	08 95       	ret

000005d6 <EEPROM_write>:
 */ 
#include "EEPROM.h"

void EEPROM_write(unsigned int uiAddress, unsigned char ucData){
	/* Wait for completion of previous write */
	while(EECR & (1<<EEWE))
     5d6:	e1 99       	sbic	0x1c, 1	; 28
     5d8:	fe cf       	rjmp	.-4      	; 0x5d6 <EEPROM_write>
	;
	/* Set up address and data registers */
	EEAR = uiAddress;
     5da:	9f bb       	out	0x1f, r25	; 31
     5dc:	8e bb       	out	0x1e, r24	; 30
	EEDR = ucData;
     5de:	6d bb       	out	0x1d, r22	; 29
	/* Write logical one to EEMWE */
	EECR |= (1<<EEMWE);
     5e0:	e2 9a       	sbi	0x1c, 2	; 28
	/* Start eeprom write by setting EEWE */
	EECR |= (1<<EEWE);
     5e2:	e1 9a       	sbi	0x1c, 1	; 28
     5e4:	08 95       	ret

000005e6 <EEPROM_read>:
}

unsigned char EEPROM_read(unsigned int uiAddress){
	/* Wait for completion of previous write */
	while(EECR & (1<<EEWE))
     5e6:	e1 99       	sbic	0x1c, 1	; 28
     5e8:	fe cf       	rjmp	.-4      	; 0x5e6 <EEPROM_read>
	;
	/* Set up address register */
	EEAR = uiAddress;
     5ea:	9f bb       	out	0x1f, r25	; 31
     5ec:	8e bb       	out	0x1e, r24	; 30
	/* Start eeprom read by writing EERE */
	EECR |= (1<<EERE);
     5ee:	e0 9a       	sbi	0x1c, 0	; 28
	/* Return data from data register */
	return EEDR;
     5f0:	8d b3       	in	r24, 0x1d	; 29
}
     5f2:	08 95       	ret

000005f4 <fsm_getCurrentState>:

#include "fsm.h"

fsm_state fsm_getCurrentState(void){
	return currentState;
}
     5f4:	80 91 cf 03 	lds	r24, 0x03CF	; 0x8003cf <currentState>
     5f8:	08 95       	ret

000005fa <fsm_evMainMenu>:
	pong_highscore_init();
	fsm_evMainMenu();
}

void fsm_evMainMenu(void){
	OLED_clear();
     5fa:	c3 d1       	rcall	.+902    	; 0x982 <OLED_clear>
	OLED_store_menu(MAIN_MENU);
     5fc:	83 e2       	ldi	r24, 0x23	; 35
     5fe:	91 e0       	ldi	r25, 0x01	; 1
	OLED_refresh();
     600:	3f d2       	rcall	.+1150   	; 0xa80 <OLED_store_menu>
     602:	10 d2       	rcall	.+1056   	; 0xa24 <OLED_refresh>
	currentState = STATE_MAIN_MENU;
     604:	10 92 cf 03 	sts	0x03CF, r1	; 0x8003cf <currentState>
     608:	08 95       	ret

0000060a <fsm_evInit>:
	return currentState;
}


void fsm_evInit(void){
	USART_Init();
     60a:	59 d6       	rcall	.+3250   	; 0x12be <USART_Init>
	memory_init();
     60c:	53 d1       	rcall	.+678    	; 0x8b4 <memory_init>
     60e:	84 ea       	ldi	r24, 0xA4	; 164
     610:	8a 95       	dec	r24
     612:	f1 f7       	brne	.-4      	; 0x610 <fsm_evInit+0x6>
	_delay_us(100); //NEEDED?
	JOY_init();
     614:	72 d0       	rcall	.+228    	; 0x6fa <JOY_init>
	OLED_init();
     616:	55 d1       	rcall	.+682    	; 0x8c2 <OLED_init>
	CAN_init(MODE_NORMAL);
     618:	80 e0       	ldi	r24, 0x00	; 0
     61a:	06 df       	rcall	.-500    	; 0x428 <CAN_init>
     61c:	35 d6       	rcall	.+3178   	; 0x1288 <pong_highscore_init>
	pong_highscore_init();
     61e:	ed cf       	rjmp	.-38     	; 0x5fa <fsm_evMainMenu>
     620:	08 95       	ret

00000622 <fsm_evPong>:
	fsm_evMainMenu();
     622:	af d1       	rcall	.+862    	; 0x982 <OLED_clear>
     624:	85 e6       	ldi	r24, 0x65	; 101
     626:	91 e0       	ldi	r25, 0x01	; 1
}

void fsm_evPong(void){
	OLED_clear();
	OLED_store_menu(PONG_MENU);
	OLED_refresh();
     628:	2b d2       	rcall	.+1110   	; 0xa80 <OLED_store_menu>
     62a:	fc d1       	rcall	.+1016   	; 0xa24 <OLED_refresh>
	currentState = STATE_PONG;
     62c:	81 e0       	ldi	r24, 0x01	; 1
     62e:	80 93 cf 03 	sts	0x03CF, r24	; 0x8003cf <currentState>
     632:	08 95       	ret

00000634 <fsm_evSnek>:
}

void fsm_evSnek(void){
	OLED_clear();
     634:	a6 d1       	rcall	.+844    	; 0x982 <OLED_clear>
	OLED_store_menu(SNEK_MENU);
     636:	87 eb       	ldi	r24, 0xB7	; 183
     638:	91 e0       	ldi	r25, 0x01	; 1
	OLED_refresh();
     63a:	22 d2       	rcall	.+1092   	; 0xa80 <OLED_store_menu>
     63c:	f3 d1       	rcall	.+998    	; 0xa24 <OLED_refresh>
	currentState = STATE_SNEK;
     63e:	82 e0       	ldi	r24, 0x02	; 2
     640:	80 93 cf 03 	sts	0x03CF, r24	; 0x8003cf <currentState>
     644:	08 95       	ret

00000646 <fsm_evThanksTo>:
}

void fsm_evThanksTo(void){
	OLED_clear();
     646:	9d d1       	rcall	.+826    	; 0x982 <OLED_clear>
	OLED_store_menu(THANKS_TO_MENU);
     648:	89 ee       	ldi	r24, 0xE9	; 233
     64a:	91 e0       	ldi	r25, 0x01	; 1
	OLED_refresh();
     64c:	19 d2       	rcall	.+1074   	; 0xa80 <OLED_store_menu>
     64e:	ea d1       	rcall	.+980    	; 0xa24 <OLED_refresh>
	currentState = STATE_THANKS_TO;
     650:	83 e0       	ldi	r24, 0x03	; 3
     652:	80 93 cf 03 	sts	0x03CF, r24	; 0x8003cf <currentState>
     656:	08 95       	ret

00000658 <fsm_menuNavigate>:
}

OLED_line fsm_menuNavigate(OLED_line max_line){
     658:	ef 92       	push	r14
     65a:	ff 92       	push	r15
     65c:	0f 93       	push	r16
     65e:	1f 93       	push	r17
     660:	cf 93       	push	r28
     662:	df 93       	push	r29
	JOY_dir_y prev_dir_y = DEADZONE;
	JOY_dir_y cur_dir_y;
	uint8_t last_state_button = 1;
	uint8_t cur_state_button;
	OLED_line cur_line = LINE_3;
     664:	02 e0       	ldi	r16, 0x02	; 2
}

OLED_line fsm_menuNavigate(OLED_line max_line){
	JOY_dir_y prev_dir_y = DEADZONE;
	JOY_dir_y cur_dir_y;
	uint8_t last_state_button = 1;
     666:	d1 e0       	ldi	r29, 0x01	; 1
	OLED_refresh();
	currentState = STATE_THANKS_TO;
}

OLED_line fsm_menuNavigate(OLED_line max_line){
	JOY_dir_y prev_dir_y = DEADZONE;
     668:	12 e0       	ldi	r17, 0x02	; 2
	uint8_t cur_state_button;
	OLED_line cur_line = LINE_3;
	while(1){
		cur_dir_y = JOY_get_dir_y();
		if (prev_dir_y == MIDDLE && cur_dir_y != MIDDLE && cur_dir_y != DEADZONE){
			if ((cur_line + cur_dir_y) >= 2 && (cur_line + cur_dir_y) <= max_line){	
     66a:	e8 2e       	mov	r14, r24
     66c:	f1 2c       	mov	r15, r1
     66e:	03 c0       	rjmp	.+6      	; 0x676 <fsm_menuNavigate+0x1e>
     670:	d8 2f       	mov	r29, r24
     672:	01 c0       	rjmp	.+2      	; 0x676 <fsm_menuNavigate+0x1e>
     674:	d8 2f       	mov	r29, r24
	JOY_dir_y cur_dir_y;
	uint8_t last_state_button = 1;
	uint8_t cur_state_button;
	OLED_line cur_line = LINE_3;
	while(1){
		cur_dir_y = JOY_get_dir_y();
     676:	57 d0       	rcall	.+174    	; 0x726 <JOY_get_dir_y>
     678:	c8 2f       	mov	r28, r24
		if (prev_dir_y == MIDDLE && cur_dir_y != MIDDLE && cur_dir_y != DEADZONE){
     67a:	11 11       	cpse	r17, r1
     67c:	1a c0       	rjmp	.+52     	; 0x6b2 <fsm_menuNavigate+0x5a>
     67e:	88 23       	and	r24, r24
     680:	09 f1       	breq	.+66     	; 0x6c4 <fsm_menuNavigate+0x6c>
     682:	82 30       	cpi	r24, 0x02	; 2
     684:	c9 f0       	breq	.+50     	; 0x6b8 <fsm_menuNavigate+0x60>
			if ((cur_line + cur_dir_y) >= 2 && (cur_line + cur_dir_y) <= max_line){	
     686:	28 2f       	mov	r18, r24
     688:	88 0f       	add	r24, r24
     68a:	33 0b       	sbc	r19, r19
     68c:	20 0f       	add	r18, r16
     68e:	31 1d       	adc	r19, r1
     690:	22 30       	cpi	r18, 0x02	; 2
     692:	31 05       	cpc	r19, r1
     694:	bc f0       	brlt	.+46     	; 0x6c4 <fsm_menuNavigate+0x6c>
     696:	e2 16       	cp	r14, r18
     698:	f3 06       	cpc	r15, r19
     69a:	a4 f0       	brlt	.+40     	; 0x6c4 <fsm_menuNavigate+0x6c>
				OLED_goto_line(cur_line);
     69c:	80 2f       	mov	r24, r16
     69e:	4b d1       	rcall	.+662    	; 0x936 <OLED_goto_line>
				OLED_store_sym(' ');
     6a0:	80 e2       	ldi	r24, 0x20	; 32
     6a2:	b0 d1       	rcall	.+864    	; 0xa04 <OLED_store_sym>
				OLED_goto_line(cur_line += cur_dir_y);
     6a4:	0c 0f       	add	r16, r28
     6a6:	80 2f       	mov	r24, r16
				OLED_store_sym('>');
     6a8:	46 d1       	rcall	.+652    	; 0x936 <OLED_goto_line>
     6aa:	8e e3       	ldi	r24, 0x3E	; 62
     6ac:	ab d1       	rcall	.+854    	; 0xa04 <OLED_store_sym>
				OLED_refresh();
     6ae:	ba d1       	rcall	.+884    	; 0xa24 <OLED_refresh>
     6b0:	09 c0       	rjmp	.+18     	; 0x6c4 <fsm_menuNavigate+0x6c>
			}	
		}
		//Saturation for direction of y
		if(cur_dir_y != DEADZONE){
     6b2:	82 30       	cpi	r24, 0x02	; 2
     6b4:	09 f0       	breq	.+2      	; 0x6b8 <fsm_menuNavigate+0x60>
			prev_dir_y = cur_dir_y;
     6b6:	18 2f       	mov	r17, r24
		}
		//Prevent spamming presses across states
		cur_state_button = JOY_get_button();
     6b8:	22 d0       	rcall	.+68     	; 0x6fe <JOY_get_button>
     6ba:	d1 11       	cpse	r29, r1
		if (last_state_button == 0 && cur_state_button == 1){
     6bc:	d9 cf       	rjmp	.-78     	; 0x670 <fsm_menuNavigate+0x18>
     6be:	81 30       	cpi	r24, 0x01	; 1
     6c0:	c9 f6       	brne	.-78     	; 0x674 <fsm_menuNavigate+0x1c>
     6c2:	02 c0       	rjmp	.+4      	; 0x6c8 <fsm_menuNavigate+0x70>
     6c4:	1c 2f       	mov	r17, r28
				OLED_refresh();
			}	
		}
		//Saturation for direction of y
		if(cur_dir_y != DEADZONE){
			prev_dir_y = cur_dir_y;
     6c6:	f8 cf       	rjmp	.-16     	; 0x6b8 <fsm_menuNavigate+0x60>
     6c8:	80 2f       	mov	r24, r16
			return cur_line;
		} else{
			last_state_button = cur_state_button;
		}	
	}
}
     6ca:	df 91       	pop	r29
     6cc:	cf 91       	pop	r28
     6ce:	1f 91       	pop	r17
     6d0:	0f 91       	pop	r16
     6d2:	ff 90       	pop	r15
     6d4:	ef 90       	pop	r14
     6d6:	08 95       	ret

000006d8 <fsm_Return>:
     6d8:	cf 93       	push	r28

//Loop until button press with spam prevention
void fsm_Return(void){
     6da:	df 93       	push	r29
	uint8_t last_state_button = 1;
     6dc:	c1 e0       	ldi	r28, 0x01	; 1
	while(1){
		if(JOY_get_button() && !last_state_button){
			return;
		} else if(!JOY_get_button()){
			last_state_button = 0;
     6de:	d0 e0       	ldi	r29, 0x00	; 0

//Loop until button press with spam prevention
void fsm_Return(void){
	uint8_t last_state_button = 1;
	while(1){
		if(JOY_get_button() && !last_state_button){
     6e0:	0e d0       	rcall	.+28     	; 0x6fe <JOY_get_button>
     6e2:	88 23       	and	r24, r24
     6e4:	11 f0       	breq	.+4      	; 0x6ea <fsm_Return+0x12>
     6e6:	cc 23       	and	r28, r28
			return;
		} else if(!JOY_get_button()){
     6e8:	29 f0       	breq	.+10     	; 0x6f4 <fsm_Return+0x1c>
     6ea:	09 d0       	rcall	.+18     	; 0x6fe <JOY_get_button>
     6ec:	81 11       	cpse	r24, r1
     6ee:	f8 cf       	rjmp	.-16     	; 0x6e0 <fsm_Return+0x8>
			last_state_button = 0;
     6f0:	cd 2f       	mov	r28, r29
     6f2:	f6 cf       	rjmp	.-20     	; 0x6e0 <fsm_Return+0x8>
		}
	}
}
     6f4:	df 91       	pop	r29
     6f6:	cf 91       	pop	r28
     6f8:	08 95       	ret

000006fa <JOY_init>:
	}
}

uint8_t left_slider_pos(void){
	return ADC_read(CHANNEL_3);
}
     6fa:	95 9a       	sbi	0x12, 5	; 18
     6fc:	08 95       	ret

000006fe <JOY_get_button>:
     6fe:	81 e0       	ldi	r24, 0x01	; 1
     700:	85 99       	sbic	0x10, 5	; 16
     702:	80 e0       	ldi	r24, 0x00	; 0
     704:	08 95       	ret

00000706 <JOY_get_x>:
     706:	81 e0       	ldi	r24, 0x01	; 1
     708:	5a de       	rcall	.-844    	; 0x3be <ADC_read>
     70a:	95 e8       	ldi	r25, 0x85	; 133
     70c:	98 0f       	add	r25, r24
     70e:	97 31       	cpi	r25, 0x17	; 23
     710:	08 f4       	brcc	.+2      	; 0x714 <JOY_get_x+0xe>
     712:	8f e7       	ldi	r24, 0x7F	; 127
     714:	08 95       	ret

00000716 <JOY_get_y>:
     716:	82 e0       	ldi	r24, 0x02	; 2
     718:	52 de       	rcall	.-860    	; 0x3be <ADC_read>
     71a:	9d e8       	ldi	r25, 0x8D	; 141
     71c:	98 0f       	add	r25, r24
     71e:	9f 31       	cpi	r25, 0x1F	; 31
     720:	08 f4       	brcc	.+2      	; 0x724 <JOY_get_y+0xe>
     722:	8f e7       	ldi	r24, 0x7F	; 127
     724:	08 95       	ret

00000726 <JOY_get_dir_y>:
     726:	82 e0       	ldi	r24, 0x02	; 2
     728:	4a de       	rcall	.-876    	; 0x3be <ADC_read>
     72a:	85 30       	cpi	r24, 0x05	; 5
     72c:	38 f0       	brcs	.+14     	; 0x73c <JOY_get_dir_y+0x16>
     72e:	8b 3f       	cpi	r24, 0xFB	; 251
     730:	38 f4       	brcc	.+14     	; 0x740 <JOY_get_dir_y+0x1a>
     732:	84 57       	subi	r24, 0x74	; 116
     734:	8d 31       	cpi	r24, 0x1D	; 29
     736:	30 f0       	brcs	.+12     	; 0x744 <JOY_get_dir_y+0x1e>
     738:	82 e0       	ldi	r24, 0x02	; 2
     73a:	08 95       	ret
     73c:	81 e0       	ldi	r24, 0x01	; 1
     73e:	08 95       	ret
     740:	8f ef       	ldi	r24, 0xFF	; 255
     742:	08 95       	ret
     744:	80 e0       	ldi	r24, 0x00	; 0
     746:	08 95       	ret

00000748 <right_slider_pos>:

uint8_t right_slider_pos(void){
	return ADC_read(CHANNEL_4);
     748:	84 e0       	ldi	r24, 0x04	; 4
     74a:	39 ce       	rjmp	.-910    	; 0x3be <ADC_read>
}
     74c:	08 95       	ret

0000074e <main>:
#include <avr/io.h>
#include "fsm.h"

int main(void){	

	fsm_evInit();
     74e:	5d df       	rcall	.-326    	; 0x60a <fsm_evInit>

	while (1){
		switch(fsm_getCurrentState()){
     750:	51 df       	rcall	.-350    	; 0x5f4 <fsm_getCurrentState>
     752:	81 30       	cpi	r24, 0x01	; 1
     754:	b1 f0       	breq	.+44     	; 0x782 <main+0x34>
     756:	38 f0       	brcs	.+14     	; 0x766 <main+0x18>
     758:	82 30       	cpi	r24, 0x02	; 2
     75a:	09 f4       	brne	.+2      	; 0x75e <main+0x10>
     75c:	30 c0       	rjmp	.+96     	; 0x7be <main+0x70>
     75e:	83 30       	cpi	r24, 0x03	; 3
     760:	09 f4       	brne	.+2      	; 0x764 <main+0x16>
     762:	34 c0       	rjmp	.+104    	; 0x7cc <main+0x7e>
     764:	f5 cf       	rjmp	.-22     	; 0x750 <main+0x2>
			case STATE_MAIN_MENU:
				switch(fsm_menuNavigate(LINE_5)){
     766:	84 e0       	ldi	r24, 0x04	; 4
     768:	77 df       	rcall	.-274    	; 0x658 <fsm_menuNavigate>
     76a:	83 30       	cpi	r24, 0x03	; 3
     76c:	31 f0       	breq	.+12     	; 0x77a <main+0x2c>
     76e:	84 30       	cpi	r24, 0x04	; 4
     770:	31 f0       	breq	.+12     	; 0x77e <main+0x30>
     772:	82 30       	cpi	r24, 0x02	; 2
     774:	69 f7       	brne	.-38     	; 0x750 <main+0x2>
					case(LINE_3):
						fsm_evPong();
     776:	55 df       	rcall	.-342    	; 0x622 <fsm_evPong>
						break;
     778:	eb cf       	rjmp	.-42     	; 0x750 <main+0x2>
					case(LINE_4):
						fsm_evSnek();
     77a:	5c df       	rcall	.-328    	; 0x634 <fsm_evSnek>
						break;
     77c:	e9 cf       	rjmp	.-46     	; 0x750 <main+0x2>
					case(LINE_5):
						fsm_evThanksTo();
     77e:	63 df       	rcall	.-314    	; 0x646 <fsm_evThanksTo>
     780:	e7 cf       	rjmp	.-50     	; 0x750 <main+0x2>

						break;
     782:	85 e0       	ldi	r24, 0x05	; 5
					default:
						break;
				}
				break;
			case STATE_PONG:
				switch(fsm_menuNavigate(LINE_6)){
     784:	69 df       	rcall	.-302    	; 0x658 <fsm_menuNavigate>
     786:	83 30       	cpi	r24, 0x03	; 3
     788:	79 f0       	breq	.+30     	; 0x7a8 <main+0x5a>
     78a:	18 f4       	brcc	.+6      	; 0x792 <main+0x44>
     78c:	82 30       	cpi	r24, 0x02	; 2
     78e:	31 f0       	breq	.+12     	; 0x79c <main+0x4e>
     790:	df cf       	rjmp	.-66     	; 0x750 <main+0x2>
     792:	84 30       	cpi	r24, 0x04	; 4
     794:	71 f0       	breq	.+28     	; 0x7b2 <main+0x64>
     796:	85 30       	cpi	r24, 0x05	; 5
     798:	81 f0       	breq	.+32     	; 0x7ba <main+0x6c>
					case(LINE_3):
						pong_play(JOY);
     79a:	da cf       	rjmp	.-76     	; 0x750 <main+0x2>
						pong_print_highscore();
     79c:	80 e0       	ldi	r24, 0x00	; 0
						fsm_Return();
     79e:	08 d5       	rcall	.+2576   	; 0x11b0 <pong_play>
						fsm_evPong();
     7a0:	dd d2       	rcall	.+1466   	; 0xd5c <pong_print_highscore>
						break;
     7a2:	9a df       	rcall	.-204    	; 0x6d8 <fsm_Return>
					case(LINE_4):
						pong_play(SLIDER);
     7a4:	3e df       	rcall	.-388    	; 0x622 <fsm_evPong>
     7a6:	d4 cf       	rjmp	.-88     	; 0x750 <main+0x2>
						fsm_Return();
     7a8:	81 e0       	ldi	r24, 0x01	; 1
     7aa:	02 d5       	rcall	.+2564   	; 0x11b0 <pong_play>
						fsm_evPong();
     7ac:	95 df       	rcall	.-214    	; 0x6d8 <fsm_Return>
						break;
     7ae:	39 df       	rcall	.-398    	; 0x622 <fsm_evPong>
					case(LINE_5):
						pong_print_highscore();
     7b0:	cf cf       	rjmp	.-98     	; 0x750 <main+0x2>
						fsm_Return();
     7b2:	d4 d2       	rcall	.+1448   	; 0xd5c <pong_print_highscore>
     7b4:	91 df       	rcall	.-222    	; 0x6d8 <fsm_Return>
						fsm_evPong();
     7b6:	35 df       	rcall	.-406    	; 0x622 <fsm_evPong>
						break;
     7b8:	cb cf       	rjmp	.-106    	; 0x750 <main+0x2>
					case(LINE_6):
						fsm_evMainMenu();
     7ba:	1f df       	rcall	.-450    	; 0x5fa <fsm_evMainMenu>
     7bc:	c9 cf       	rjmp	.-110    	; 0x750 <main+0x2>
						break;
     7be:	83 e0       	ldi	r24, 0x03	; 3
						break;
				}
				break;
			
			case STATE_SNEK:
				switch(fsm_menuNavigate(LINE_4)){
     7c0:	4b df       	rcall	.-362    	; 0x658 <fsm_menuNavigate>
     7c2:	83 30       	cpi	r24, 0x03	; 3
     7c4:	09 f0       	breq	.+2      	; 0x7c8 <main+0x7a>
     7c6:	c4 cf       	rjmp	.-120    	; 0x750 <main+0x2>
     7c8:	18 df       	rcall	.-464    	; 0x5fa <fsm_evMainMenu>
     7ca:	c2 cf       	rjmp	.-124    	; 0x750 <main+0x2>
					case(LINE_3):
						//fsm_evMenu2();
						break;
					case(LINE_4):
						fsm_evMainMenu();
     7cc:	82 e0       	ldi	r24, 0x02	; 2
     7ce:	44 df       	rcall	.-376    	; 0x658 <fsm_menuNavigate>
						break;
     7d0:	82 30       	cpi	r24, 0x02	; 2
					default:
						break;
				}
				break;
			case STATE_THANKS_TO:
				switch(fsm_menuNavigate(LINE_3)){
     7d2:	09 f0       	breq	.+2      	; 0x7d6 <main+0x88>
     7d4:	bd cf       	rjmp	.-134    	; 0x750 <main+0x2>
     7d6:	11 df       	rcall	.-478    	; 0x5fa <fsm_evMainMenu>
     7d8:	bb cf       	rjmp	.-138    	; 0x750 <main+0x2>

000007da <mcp2515_read>:
     7da:	cf 93       	push	r28
     7dc:	c8 2f       	mov	r28, r24
					case(LINE_3):
						fsm_evMainMenu();
     7de:	c4 98       	cbi	0x18, 4	; 24
     7e0:	83 e0       	ldi	r24, 0x03	; 3
						break;
     7e2:	61 d5       	rcall	.+2754   	; 0x12a6 <SPI_send>
	SPI_send(MCP_READ_STATUS); // Read the status
	status = SPI_read();

	PORTB |= (1<<PB4); // Deselect CAN - controller
	return status;
}
     7e4:	8c 2f       	mov	r24, r28
     7e6:	5f d5       	rcall	.+2750   	; 0x12a6 <SPI_send>
     7e8:	58 d5       	rcall	.+2736   	; 0x129a <SPI_read>
     7ea:	c4 9a       	sbi	0x18, 4	; 24
     7ec:	cf 91       	pop	r28
     7ee:	08 95       	ret

000007f0 <mcp2515_write>:
     7f0:	cf 93       	push	r28
     7f2:	df 93       	push	r29
     7f4:	d8 2f       	mov	r29, r24
     7f6:	c6 2f       	mov	r28, r22
     7f8:	c4 98       	cbi	0x18, 4	; 24
     7fa:	82 e0       	ldi	r24, 0x02	; 2
     7fc:	54 d5       	rcall	.+2728   	; 0x12a6 <SPI_send>
     7fe:	8d 2f       	mov	r24, r29
     800:	52 d5       	rcall	.+2724   	; 0x12a6 <SPI_send>
     802:	8c 2f       	mov	r24, r28
     804:	50 d5       	rcall	.+2720   	; 0x12a6 <SPI_send>
     806:	c4 9a       	sbi	0x18, 4	; 24
     808:	df 91       	pop	r29
     80a:	cf 91       	pop	r28
     80c:	08 95       	ret

0000080e <mcp2515_set_mode>:
     80e:	68 2f       	mov	r22, r24
     810:	8f e0       	ldi	r24, 0x0F	; 15
     812:	ee cf       	rjmp	.-36     	; 0x7f0 <mcp2515_write>
     814:	08 95       	ret

00000816 <mcp2515_request_to_send>:
     816:	c4 98       	cbi	0x18, 4	; 24
     818:	46 d5       	rcall	.+2700   	; 0x12a6 <SPI_send>
     81a:	c4 9a       	sbi	0x18, 4	; 24
     81c:	08 95       	ret

0000081e <mcp2515_bit_modify>:

void mcp2515_bit_modify(uint8_t regist, uint8_t mask, uint8_t cData){
     81e:	1f 93       	push	r17
     820:	cf 93       	push	r28
     822:	df 93       	push	r29
     824:	18 2f       	mov	r17, r24
     826:	d6 2f       	mov	r29, r22
     828:	c4 2f       	mov	r28, r20
	PORTB &= ~(1<<PB4); // Chip select CAN - controller
     82a:	c4 98       	cbi	0x18, 4	; 24
	
	SPI_send(MCP_BITMOD); // Ready bit modify instruction
     82c:	85 e0       	ldi	r24, 0x05	; 5
     82e:	3b d5       	rcall	.+2678   	; 0x12a6 <SPI_send>
	SPI_send(regist); // Choose register
     830:	81 2f       	mov	r24, r17
     832:	39 d5       	rcall	.+2674   	; 0x12a6 <SPI_send>
	SPI_send(mask); // Send bit mask
     834:	8d 2f       	mov	r24, r29
     836:	37 d5       	rcall	.+2670   	; 0x12a6 <SPI_send>
	SPI_send(cData); // Modify the bits to match cData
     838:	8c 2f       	mov	r24, r28
     83a:	35 d5       	rcall	.+2666   	; 0x12a6 <SPI_send>
     83c:	c4 9a       	sbi	0x18, 4	; 24
	
	PORTB |= (1<<PB4); // Deselect CAN - controller
     83e:	df 91       	pop	r29
}
     840:	cf 91       	pop	r28
     842:	1f 91       	pop	r17
     844:	08 95       	ret

00000846 <mcp2515_reset>:
     846:	c4 98       	cbi	0x18, 4	; 24
}

void mcp2515_reset(void){
	PORTB &= ~(1<<PB4); // Chip select CAN - controller
	
	SPI_send(MCP_RESET); // Set registers to default state
     848:	80 ec       	ldi	r24, 0xC0	; 192
     84a:	2d d5       	rcall	.+2650   	; 0x12a6 <SPI_send>
	mcp2515_bit_modify(MCP_CANCTRL, MODE_CONFIG,MODE_CONFIG); // Force the CAN - controller to enter configuration mode
     84c:	40 e8       	ldi	r20, 0x80	; 128
     84e:	60 e8       	ldi	r22, 0x80	; 128
     850:	8f e0       	ldi	r24, 0x0F	; 15
     852:	e5 df       	rcall	.-54     	; 0x81e <mcp2515_bit_modify>
	
	PORTB |= (1<<PB4); //Deselect CAN - controller
     854:	c4 9a       	sbi	0x18, 4	; 24
     856:	80 e1       	ldi	r24, 0x10	; 16
     858:	8a 95       	dec	r24
     85a:	f1 f7       	brne	.-4      	; 0x858 <mcp2515_reset+0x12>
     85c:	00 c0       	rjmp	.+0      	; 0x85e <mcp2515_reset+0x18>
     85e:	08 95       	ret

00000860 <mcp2515_init>:
	SPI_send(cData); // Modify the bits to match cData
	
	PORTB |= (1<<PB4); // Deselect CAN - controller
}

uint8_t mcp2515_init(uint8_t mode){
     860:	cf 93       	push	r28
     862:	c8 2f       	mov	r28, r24
	uint8_t mode_value;
	SPI_master_init(); //Initialize SPI
     864:	13 d5       	rcall	.+2598   	; 0x128c <SPI_master_init>
	mcp2515_reset(); // Send reset-command
     866:	ef df       	rcall	.-34     	; 0x846 <mcp2515_reset>

	/*Self-test*/
	mode_value = mcp2515_read(MCP_CANSTAT); // Read current mode
     868:	8e e0       	ldi	r24, 0x0E	; 14
     86a:	b7 df       	rcall	.-146    	; 0x7da <mcp2515_read>
     86c:	80 7e       	andi	r24, 0xE0	; 224
	if((mode_value& MODE_MASK)  != MODE_CONFIG) {
     86e:	80 38       	cpi	r24, 0x80	; 128
     870:	f1 f4       	brne	.+60     	; 0x8ae <mcp2515_init+0x4e>
	} 
	else{
		//printf("MCP2515 is  in configuration mode after reset! canstat: 0x%02x\n", theValue);
	}
	
	mcp2515_set_mode(mode);
     872:	8c 2f       	mov	r24, r28
     874:	cc df       	rcall	.-104    	; 0x80e <mcp2515_set_mode>
	mode_value = mcp2515_read(MCP_CANSTAT);
     876:	8e e0       	ldi	r24, 0x0E	; 14
     878:	b0 df       	rcall	.-160    	; 0x7da <mcp2515_read>
     87a:	80 7e       	andi	r24, 0xE0	; 224
	int mode_bits = (mode_value & MODE_MASK);
     87c:	48 2f       	mov	r20, r24
     87e:	50 e0       	ldi	r21, 0x00	; 0
     880:	2c 2f       	mov	r18, r28
	if(mode_bits != mode){ // Check if chosen mode is the same as current mode
     882:	30 e0       	ldi	r19, 0x00	; 0
     884:	42 17       	cp	r20, r18
     886:	53 07       	cpc	r21, r19
     888:	69 f0       	breq	.+26     	; 0x8a4 <mcp2515_init+0x44>
     88a:	1f 92       	push	r1
		printf("MCP2515 is NOT in correct mode after reset! Its config bits are %x\n", mode_bits);
     88c:	8f 93       	push	r24
     88e:	8b e3       	ldi	r24, 0x3B	; 59
     890:	92 e0       	ldi	r25, 0x02	; 2
     892:	9f 93       	push	r25
     894:	8f 93       	push	r24
     896:	90 d5       	rcall	.+2848   	; 0x13b8 <printf>
     898:	0f 90       	pop	r0
		return 1;
     89a:	0f 90       	pop	r0
     89c:	0f 90       	pop	r0
     89e:	0f 90       	pop	r0
     8a0:	81 e0       	ldi	r24, 0x01	; 1
     8a2:	06 c0       	rjmp	.+12     	; 0x8b0 <mcp2515_init+0x50>
	}
	mcp2515_write(MCP_CANINTE, MCP_RX_INT);// Enable interrups
     8a4:	63 e0       	ldi	r22, 0x03	; 3
     8a6:	8b e2       	ldi	r24, 0x2B	; 43
     8a8:	a3 df       	rcall	.-186    	; 0x7f0 <mcp2515_write>
     8aa:	80 e0       	ldi	r24, 0x00	; 0
	return 0;
     8ac:	01 c0       	rjmp	.+2      	; 0x8b0 <mcp2515_init+0x50>
     8ae:	81 e0       	ldi	r24, 0x01	; 1

	/*Self-test*/
	mode_value = mcp2515_read(MCP_CANSTAT); // Read current mode
	if((mode_value& MODE_MASK)  != MODE_CONFIG) {
		//printf("MCP2515 is NOT in configuration mode after reset! canstat: 0x%02x\n", theValue);
		return 1;
     8b0:	cf 91       	pop	r28
		printf("MCP2515 is NOT in correct mode after reset! Its config bits are %x\n", mode_bits);
		return 1;
	}
	mcp2515_write(MCP_CANINTE, MCP_RX_INT);// Enable interrups
	return 0;
}
     8b2:	08 95       	ret

000008b4 <memory_init>:
#include "Memory.h"

#include <stdlib.h>

void memory_init(void){
	set_bit(MCUCR,SRE); // Enable external memory
     8b4:	85 b7       	in	r24, 0x35	; 53
     8b6:	80 68       	ori	r24, 0x80	; 128
     8b8:	85 bf       	out	0x35, r24	; 53
	set_bit(EMCUCR,2); // Setting wait state: wait two cycles. Is this needed?
     8ba:	86 b7       	in	r24, 0x36	; 54
     8bc:	84 60       	ori	r24, 0x04	; 4
     8be:	86 bf       	out	0x36, r24	; 54
     8c0:	08 95       	ret

000008c2 <OLED_init>:
			OLED_goto_line(line);
			printf("\n");
		}
		printf("%c", symbol);
	}
}
     8c2:	e0 e0       	ldi	r30, 0x00	; 0
     8c4:	f0 e1       	ldi	r31, 0x10	; 16
     8c6:	8e ea       	ldi	r24, 0xAE	; 174
     8c8:	80 83       	st	Z, r24
     8ca:	81 ea       	ldi	r24, 0xA1	; 161
     8cc:	80 83       	st	Z, r24
     8ce:	8a ed       	ldi	r24, 0xDA	; 218
     8d0:	80 83       	st	Z, r24
     8d2:	82 e1       	ldi	r24, 0x12	; 18
     8d4:	80 83       	st	Z, r24
     8d6:	88 ec       	ldi	r24, 0xC8	; 200
     8d8:	80 83       	st	Z, r24
     8da:	88 ea       	ldi	r24, 0xA8	; 168
     8dc:	80 83       	st	Z, r24
     8de:	8f e3       	ldi	r24, 0x3F	; 63
     8e0:	80 83       	st	Z, r24
     8e2:	85 ed       	ldi	r24, 0xD5	; 213
     8e4:	80 83       	st	Z, r24
     8e6:	80 e8       	ldi	r24, 0x80	; 128
     8e8:	80 83       	st	Z, r24
     8ea:	81 e8       	ldi	r24, 0x81	; 129
     8ec:	80 83       	st	Z, r24
     8ee:	8a e0       	ldi	r24, 0x0A	; 10
     8f0:	80 83       	st	Z, r24
     8f2:	89 ed       	ldi	r24, 0xD9	; 217
     8f4:	80 83       	st	Z, r24
     8f6:	81 e2       	ldi	r24, 0x21	; 33
     8f8:	80 83       	st	Z, r24
     8fa:	80 e2       	ldi	r24, 0x20	; 32
     8fc:	80 83       	st	Z, r24
     8fe:	82 e0       	ldi	r24, 0x02	; 2
     900:	80 83       	st	Z, r24
     902:	8b ed       	ldi	r24, 0xDB	; 219
     904:	80 83       	st	Z, r24
     906:	80 e3       	ldi	r24, 0x30	; 48
     908:	80 83       	st	Z, r24
     90a:	8d ea       	ldi	r24, 0xAD	; 173
     90c:	80 83       	st	Z, r24
     90e:	10 82       	st	Z, r1
     910:	84 ea       	ldi	r24, 0xA4	; 164
     912:	80 83       	st	Z, r24
     914:	86 ea       	ldi	r24, 0xA6	; 166
     916:	80 83       	st	Z, r24
     918:	8f ea       	ldi	r24, 0xAF	; 175
     91a:	80 83       	st	Z, r24
     91c:	08 95       	ret

0000091e <OLED_home>:
     91e:	e0 e0       	ldi	r30, 0x00	; 0
     920:	f0 e1       	ldi	r31, 0x10	; 16
     922:	80 eb       	ldi	r24, 0xB0	; 176
     924:	80 83       	st	Z, r24
     926:	80 e1       	ldi	r24, 0x10	; 16
     928:	80 83       	st	Z, r24
     92a:	10 82       	st	Z, r1
     92c:	10 92 d1 03 	sts	0x03D1, r1	; 0x8003d1 <cursor+0x1>
     930:	10 92 d0 03 	sts	0x03D0, r1	; 0x8003d0 <cursor>
     934:	08 95       	ret

00000936 <OLED_goto_line>:
     936:	90 eb       	ldi	r25, 0xB0	; 176
     938:	98 0f       	add	r25, r24
     93a:	e0 e0       	ldi	r30, 0x00	; 0
     93c:	f0 e1       	ldi	r31, 0x10	; 16
     93e:	90 83       	st	Z, r25
     940:	90 e1       	ldi	r25, 0x10	; 16
     942:	90 83       	st	Z, r25
     944:	10 82       	st	Z, r1
     946:	20 e1       	ldi	r18, 0x10	; 16
     948:	82 9f       	mul	r24, r18
     94a:	c0 01       	movw	r24, r0
     94c:	11 24       	eor	r1, r1
     94e:	90 93 d1 03 	sts	0x03D1, r25	; 0x8003d1 <cursor+0x1>
     952:	80 93 d0 03 	sts	0x03D0, r24	; 0x8003d0 <cursor>
     956:	08 95       	ret

00000958 <OLED_clear_line>:
     958:	90 e1       	ldi	r25, 0x10	; 16
     95a:	89 9f       	mul	r24, r25
     95c:	a0 01       	movw	r20, r0
     95e:	11 24       	eor	r1, r1
     960:	fa 01       	movw	r30, r20
     962:	f8 5e       	subi	r31, 0xE8	; 232
     964:	9a 01       	movw	r18, r20
     966:	20 5f       	subi	r18, 0xF0	; 240
     968:	37 4e       	sbci	r19, 0xE7	; 231
     96a:	90 e2       	ldi	r25, 0x20	; 32
     96c:	91 93       	st	Z+, r25
     96e:	e2 17       	cp	r30, r18
     970:	f3 07       	cpc	r31, r19
     972:	e1 f7       	brne	.-8      	; 0x96c <OLED_clear_line+0x14>
     974:	40 5f       	subi	r20, 0xF0	; 240
     976:	5f 4f       	sbci	r21, 0xFF	; 255
     978:	50 93 d1 03 	sts	0x03D1, r21	; 0x8003d1 <cursor+0x1>
     97c:	40 93 d0 03 	sts	0x03D0, r20	; 0x8003d0 <cursor>
     980:	08 95       	ret

00000982 <OLED_clear>:
     982:	cf 93       	push	r28
     984:	c0 e0       	ldi	r28, 0x00	; 0
     986:	8c 2f       	mov	r24, r28
     988:	e7 df       	rcall	.-50     	; 0x958 <OLED_clear_line>
     98a:	cf 5f       	subi	r28, 0xFF	; 255
     98c:	c8 30       	cpi	r28, 0x08	; 8
     98e:	d9 f7       	brne	.-10     	; 0x986 <OLED_clear+0x4>
     990:	c6 df       	rcall	.-116    	; 0x91e <OLED_home>
     992:	cf 91       	pop	r28
     994:	08 95       	ret

00000996 <OLED_load_sym>:
     996:	8f 31       	cpi	r24, 0x1F	; 31
     998:	bc f0       	brlt	.+46     	; 0x9c8 <OLED_load_sym+0x32>
     99a:	08 2e       	mov	r0, r24
     99c:	00 0c       	add	r0, r0
     99e:	99 0b       	sbc	r25, r25
     9a0:	4f 97       	sbiw	r24, 0x1f	; 31
     9a2:	88 0f       	add	r24, r24
     9a4:	99 1f       	adc	r25, r25
     9a6:	88 0f       	add	r24, r24
     9a8:	99 1f       	adc	r25, r25
     9aa:	88 0f       	add	r24, r24
     9ac:	99 1f       	adc	r25, r25
     9ae:	fc 01       	movw	r30, r24
     9b0:	e4 58       	subi	r30, 0x84	; 132
     9b2:	ff 4f       	sbci	r31, 0xFF	; 255
     9b4:	8c 57       	subi	r24, 0x7C	; 124
     9b6:	9f 4f       	sbci	r25, 0xFF	; 255
     9b8:	a0 e0       	ldi	r26, 0x00	; 0
     9ba:	b2 e1       	ldi	r27, 0x12	; 18
     9bc:	24 91       	lpm	r18, Z
     9be:	2c 93       	st	X, r18
     9c0:	31 96       	adiw	r30, 0x01	; 1
     9c2:	e8 17       	cp	r30, r24
     9c4:	f9 07       	cpc	r31, r25
     9c6:	d1 f7       	brne	.-12     	; 0x9bc <OLED_load_sym+0x26>
     9c8:	08 95       	ret

000009ca <OLED_store_str>:
     9ca:	dc 01       	movw	r26, r24
     9cc:	4c 91       	ld	r20, X
     9ce:	44 23       	and	r20, r20
     9d0:	c1 f0       	breq	.+48     	; 0xa02 <OLED_store_str+0x38>
     9d2:	20 91 d0 03 	lds	r18, 0x03D0	; 0x8003d0 <cursor>
     9d6:	30 91 d1 03 	lds	r19, 0x03D1	; 0x8003d1 <cursor+0x1>
     9da:	90 e0       	ldi	r25, 0x00	; 0
     9dc:	20 38       	cpi	r18, 0x80	; 128
     9de:	31 05       	cpc	r19, r1
     9e0:	1c f4       	brge	.+6      	; 0x9e8 <OLED_store_str+0x1e>
     9e2:	f9 01       	movw	r30, r18
     9e4:	f8 5e       	subi	r31, 0xE8	; 232
     9e6:	40 83       	st	Z, r20
     9e8:	2f 5f       	subi	r18, 0xFF	; 255
     9ea:	3f 4f       	sbci	r19, 0xFF	; 255
     9ec:	9f 5f       	subi	r25, 0xFF	; 255
     9ee:	fd 01       	movw	r30, r26
     9f0:	e9 0f       	add	r30, r25
     9f2:	f1 1d       	adc	r31, r1
     9f4:	40 81       	ld	r20, Z
     9f6:	41 11       	cpse	r20, r1
     9f8:	f1 cf       	rjmp	.-30     	; 0x9dc <OLED_store_str+0x12>
     9fa:	30 93 d1 03 	sts	0x03D1, r19	; 0x8003d1 <cursor+0x1>
     9fe:	20 93 d0 03 	sts	0x03D0, r18	; 0x8003d0 <cursor>
     a02:	08 95       	ret

00000a04 <OLED_store_sym>:
     a04:	8f 31       	cpi	r24, 0x1F	; 31
     a06:	6c f0       	brlt	.+26     	; 0xa22 <OLED_store_sym+0x1e>
     a08:	20 91 d0 03 	lds	r18, 0x03D0	; 0x8003d0 <cursor>
     a0c:	30 91 d1 03 	lds	r19, 0x03D1	; 0x8003d1 <cursor+0x1>
     a10:	f9 01       	movw	r30, r18
     a12:	f8 5e       	subi	r31, 0xE8	; 232
     a14:	80 83       	st	Z, r24
     a16:	2f 5f       	subi	r18, 0xFF	; 255
     a18:	3f 4f       	sbci	r19, 0xFF	; 255
     a1a:	30 93 d1 03 	sts	0x03D1, r19	; 0x8003d1 <cursor+0x1>
     a1e:	20 93 d0 03 	sts	0x03D0, r18	; 0x8003d0 <cursor>
     a22:	08 95       	ret

00000a24 <OLED_refresh>:
     a24:	ef 92       	push	r14
     a26:	ff 92       	push	r15
     a28:	0f 93       	push	r16
     a2a:	1f 93       	push	r17
     a2c:	cf 93       	push	r28
     a2e:	df 93       	push	r29
     a30:	76 df       	rcall	.-276    	; 0x91e <OLED_home>
     a32:	01 e0       	ldi	r16, 0x01	; 1
     a34:	10 e0       	ldi	r17, 0x00	; 0
     a36:	c0 e0       	ldi	r28, 0x00	; 0
     a38:	d0 e0       	ldi	r29, 0x00	; 0
     a3a:	e1 2c       	mov	r14, r1
     a3c:	03 c0       	rjmp	.+6      	; 0xa44 <OLED_refresh+0x20>
     a3e:	21 96       	adiw	r28, 0x01	; 1
     a40:	0f 5f       	subi	r16, 0xFF	; 255
     a42:	1f 4f       	sbci	r17, 0xFF	; 255
     a44:	fe 01       	movw	r30, r28
     a46:	f8 5e       	subi	r31, 0xE8	; 232
     a48:	f0 80       	ld	r15, Z
     a4a:	ce 01       	movw	r24, r28
     a4c:	8f 70       	andi	r24, 0x0F	; 15
     a4e:	99 27       	eor	r25, r25
     a50:	89 2b       	or	r24, r25
     a52:	29 f4       	brne	.+10     	; 0xa5e <OLED_refresh+0x3a>
     a54:	20 97       	sbiw	r28, 0x00	; 0
     a56:	51 f0       	breq	.+20     	; 0xa6c <OLED_refresh+0x48>
     a58:	e3 94       	inc	r14
     a5a:	8e 2d       	mov	r24, r14
     a5c:	6c df       	rcall	.-296    	; 0x936 <OLED_goto_line>
     a5e:	8f 2d       	mov	r24, r15
     a60:	9a df       	rcall	.-204    	; 0x996 <OLED_load_sym>
     a62:	00 38       	cpi	r16, 0x80	; 128
     a64:	11 05       	cpc	r17, r1
     a66:	5c f3       	brlt	.-42     	; 0xa3e <OLED_refresh+0x1a>
     a68:	5a df       	rcall	.-332    	; 0x91e <OLED_home>
     a6a:	03 c0       	rjmp	.+6      	; 0xa72 <OLED_refresh+0x4e>
     a6c:	8f 2d       	mov	r24, r15
     a6e:	93 df       	rcall	.-218    	; 0x996 <OLED_load_sym>
     a70:	e6 cf       	rjmp	.-52     	; 0xa3e <OLED_refresh+0x1a>
     a72:	df 91       	pop	r29
     a74:	cf 91       	pop	r28
     a76:	1f 91       	pop	r17
     a78:	0f 91       	pop	r16
     a7a:	ff 90       	pop	r15
     a7c:	ef 90       	pop	r14
     a7e:	08 95       	ret

00000a80 <OLED_store_menu>:


void OLED_store_menu(char* string){ // Stores chosen menu in SRAM buffer
     a80:	0f 93       	push	r16
     a82:	1f 93       	push	r17
     a84:	cf 93       	push	r28
     a86:	8c 01       	movw	r16, r24
	OLED_home();
     a88:	4a df       	rcall	.-364    	; 0x91e <OLED_home>
	uint8_t str_index = 0;
	uint8_t volatile* sram_pointer = (uint8_t *)(SRAM_MEM_ADR);
	while (string[str_index] != '\0'){
     a8a:	c1 e0       	ldi	r28, 0x01	; 1
     a8c:	1d c0       	rjmp	.+58     	; 0xac8 <OLED_store_menu+0x48>
		if (cursor < N_OLED_BYTES){
     a8e:	20 38       	cpi	r18, 0x80	; 128
     a90:	31 05       	cpc	r19, r1
     a92:	24 f5       	brge	.+72     	; 0xadc <OLED_store_menu+0x5c>
			if(string[str_index] == ''){ //  is used as key for a line of whitespace to save data memory
     a94:	84 3a       	cpi	r24, 0xA4	; 164
     a96:	71 f4       	brne	.+28     	; 0xab4 <OLED_store_menu+0x34>
				OLED_clear_line(cursor/N_OLED_LINE_BYTES); //Updates cursor in function
     a98:	c9 01       	movw	r24, r18
     a9a:	99 23       	and	r25, r25
     a9c:	0c f4       	brge	.+2      	; 0xaa0 <OLED_store_menu+0x20>
     a9e:	0f 96       	adiw	r24, 0x0f	; 15
     aa0:	95 95       	asr	r25
     aa2:	87 95       	ror	r24
     aa4:	95 95       	asr	r25
     aa6:	87 95       	ror	r24
     aa8:	95 95       	asr	r25
     aaa:	87 95       	ror	r24
     aac:	95 95       	asr	r25
     aae:	87 95       	ror	r24
     ab0:	53 df       	rcall	.-346    	; 0x958 <OLED_clear_line>
     ab2:	09 c0       	rjmp	.+18     	; 0xac6 <OLED_store_menu+0x46>
				str_index++;
			}else{
				sram_pointer[cursor] = string[str_index];
     ab4:	f9 01       	movw	r30, r18
     ab6:	f8 5e       	subi	r31, 0xE8	; 232
     ab8:	80 83       	st	Z, r24
				str_index++;
				cursor++;
     aba:	2f 5f       	subi	r18, 0xFF	; 255
     abc:	3f 4f       	sbci	r19, 0xFF	; 255
     abe:	30 93 d1 03 	sts	0x03D1, r19	; 0x8003d1 <cursor+0x1>
     ac2:	20 93 d0 03 	sts	0x03D0, r18	; 0x8003d0 <cursor>
     ac6:	cf 5f       	subi	r28, 0xFF	; 255

void OLED_store_menu(char* string){ // Stores chosen menu in SRAM buffer
	OLED_home();
	uint8_t str_index = 0;
	uint8_t volatile* sram_pointer = (uint8_t *)(SRAM_MEM_ADR);
	while (string[str_index] != '\0'){
     ac8:	8f ef       	ldi	r24, 0xFF	; 255
     aca:	8c 0f       	add	r24, r28
     acc:	f8 01       	movw	r30, r16
     ace:	e8 0f       	add	r30, r24
     ad0:	f1 1d       	adc	r31, r1
     ad2:	80 81       	ld	r24, Z
		if (cursor < N_OLED_BYTES){
     ad4:	20 91 d0 03 	lds	r18, 0x03D0	; 0x8003d0 <cursor>
     ad8:	30 91 d1 03 	lds	r19, 0x03D1	; 0x8003d1 <cursor+0x1>

void OLED_store_menu(char* string){ // Stores chosen menu in SRAM buffer
	OLED_home();
	uint8_t str_index = 0;
	uint8_t volatile* sram_pointer = (uint8_t *)(SRAM_MEM_ADR);
	while (string[str_index] != '\0'){
     adc:	81 11       	cpse	r24, r1
     ade:	d7 cf       	rjmp	.-82     	; 0xa8e <OLED_store_menu+0xe>
				str_index++;
				cursor++;
			}	
		}
	}
}
     ae0:	cf 91       	pop	r28
     ae2:	1f 91       	pop	r17
     ae4:	0f 91       	pop	r16
     ae6:	08 95       	ret

00000ae8 <OLED_loading_screen>:

void OLED_loading_screen(void){
     ae8:	1f 93       	push	r17
     aea:	cf 93       	push	r28
     aec:	df 93       	push	r29
	uint8_t dot_step = 1;
	OLED_clear();
     aee:	49 df       	rcall	.-366    	; 0x982 <OLED_clear>
	OLED_goto_line(LINE_4);
     af0:	83 e0       	ldi	r24, 0x03	; 3
     af2:	21 df       	rcall	.-446    	; 0x936 <OLED_goto_line>
	OLED_store_str("    LOADING     ");
     af4:	8f e7       	ldi	r24, 0x7F	; 127
     af6:	92 e0       	ldi	r25, 0x02	; 2
     af8:	68 df       	rcall	.-304    	; 0x9ca <OLED_store_str>
     afa:	11 e0       	ldi	r17, 0x01	; 1
     afc:	cb e3       	ldi	r28, 0x3B	; 59
     afe:	d0 e0       	ldi	r29, 0x00	; 0
     b00:	02 c0       	rjmp	.+4      	; 0xb06 <OLED_loading_screen+0x1e>
     b02:	21 96       	adiw	r28, 0x01	; 1
     b04:	1f 5f       	subi	r17, 0xFF	; 255
	}
	OLED_home();
}

void OLED_pos(uint8_t row, uint8_t column){ // Puts cursor at selected coordinate
	cursor = (N_OLED_LINE_BYTES*row) + column;
     b06:	d0 93 d1 03 	sts	0x03D1, r29	; 0x8003d1 <cursor+0x1>
     b0a:	c0 93 d0 03 	sts	0x03D0, r28	; 0x8003d0 <cursor>
	OLED_clear();
	OLED_goto_line(LINE_4);
	OLED_store_str("    LOADING     ");
	for(uint8_t i = 0; i < 3; i+=dot_step){
		OLED_pos(LINE_4,11+i);
		if(i == 0){
     b0e:	11 30       	cpi	r17, 0x01	; 1
			OLED_store_sym('.');
     b10:	69 f4       	brne	.+26     	; 0xb2c <OLED_loading_screen+0x44>
     b12:	8e e2       	ldi	r24, 0x2E	; 46
     b14:	77 df       	rcall	.-274    	; 0xa04 <OLED_store_sym>
		} else{
			OLED_store_sym('.');
			OLED_pos(LINE_4,12+i-dot_step);
		}
		OLED_refresh();
     b16:	86 df       	rcall	.-244    	; 0xa24 <OLED_refresh>
     b18:	2f ef       	ldi	r18, 0xFF	; 255
	#else
		//round up by default
		__ticks_dc = (uint32_t)(ceil(fabs(__tmp)));
	#endif

	__builtin_avr_delay_cycles(__ticks_dc);
     b1a:	8f ef       	ldi	r24, 0xFF	; 255
     b1c:	98 e0       	ldi	r25, 0x08	; 8
     b1e:	21 50       	subi	r18, 0x01	; 1
     b20:	80 40       	sbci	r24, 0x00	; 0
     b22:	90 40       	sbci	r25, 0x00	; 0
     b24:	e1 f7       	brne	.-8      	; 0xb1e <OLED_loading_screen+0x36>
     b26:	00 c0       	rjmp	.+0      	; 0xb28 <OLED_loading_screen+0x40>
     b28:	00 00       	nop
     b2a:	eb cf       	rjmp	.-42     	; 0xb02 <OLED_loading_screen+0x1a>
	for(uint8_t i = 0; i < 3; i+=dot_step){
		OLED_pos(LINE_4,11+i);
		if(i == 0){
			OLED_store_sym('.');
		} else{
			OLED_store_sym('.');
     b2c:	8e e2       	ldi	r24, 0x2E	; 46
     b2e:	6a df       	rcall	.-300    	; 0xa04 <OLED_store_sym>
	}
	OLED_home();
}

void OLED_pos(uint8_t row, uint8_t column){ // Puts cursor at selected coordinate
	cursor = (N_OLED_LINE_BYTES*row) + column;
     b30:	d0 93 d1 03 	sts	0x03D1, r29	; 0x8003d1 <cursor+0x1>
     b34:	c0 93 d0 03 	sts	0x03D0, r28	; 0x8003d0 <cursor>
			OLED_store_sym('.');
		} else{
			OLED_store_sym('.');
			OLED_pos(LINE_4,12+i-dot_step);
		}
		OLED_refresh();
     b38:	75 df       	rcall	.-278    	; 0xa24 <OLED_refresh>
     b3a:	2f ef       	ldi	r18, 0xFF	; 255
     b3c:	8f ef       	ldi	r24, 0xFF	; 255
     b3e:	98 e0       	ldi	r25, 0x08	; 8
     b40:	21 50       	subi	r18, 0x01	; 1
     b42:	80 40       	sbci	r24, 0x00	; 0
     b44:	90 40       	sbci	r25, 0x00	; 0
     b46:	e1 f7       	brne	.-8      	; 0xb40 <OLED_loading_screen+0x58>
     b48:	00 c0       	rjmp	.+0      	; 0xb4a <OLED_loading_screen+0x62>
     b4a:	00 00       	nop
     b4c:	13 30       	cpi	r17, 0x03	; 3
void OLED_loading_screen(void){
	uint8_t dot_step = 1;
	OLED_clear();
	OLED_goto_line(LINE_4);
	OLED_store_str("    LOADING     ");
	for(uint8_t i = 0; i < 3; i+=dot_step){
     b4e:	c8 f2       	brcs	.-78     	; 0xb02 <OLED_loading_screen+0x1a>
     b50:	df 91       	pop	r29
			OLED_pos(LINE_4,12+i-dot_step);
		}
		OLED_refresh();
		_delay_ms(600);
	}
}
     b52:	cf 91       	pop	r28
     b54:	1f 91       	pop	r17
     b56:	08 95       	ret

00000b58 <OLED_loading_screen_long>:
     b58:	1f 93       	push	r17

void OLED_loading_screen_long(void){
     b5a:	cf 93       	push	r28
     b5c:	df 93       	push	r29
	uint8_t dot_step = 1;
	OLED_clear();
     b5e:	11 df       	rcall	.-478    	; 0x982 <OLED_clear>
	OLED_goto_line(LINE_4);
     b60:	83 e0       	ldi	r24, 0x03	; 3
     b62:	e9 de       	rcall	.-558    	; 0x936 <OLED_goto_line>
	OLED_store_str("    LOADING     ");
     b64:	8f e7       	ldi	r24, 0x7F	; 127
     b66:	92 e0       	ldi	r25, 0x02	; 2
     b68:	30 df       	rcall	.-416    	; 0x9ca <OLED_store_str>
     b6a:	11 e0       	ldi	r17, 0x01	; 1
     b6c:	cb e3       	ldi	r28, 0x3B	; 59
     b6e:	d0 e0       	ldi	r29, 0x00	; 0
     b70:	02 c0       	rjmp	.+4      	; 0xb76 <OLED_loading_screen_long+0x1e>
     b72:	21 96       	adiw	r28, 0x01	; 1
     b74:	1f 5f       	subi	r17, 0xFF	; 255
	}
	OLED_home();
}

void OLED_pos(uint8_t row, uint8_t column){ // Puts cursor at selected coordinate
	cursor = (N_OLED_LINE_BYTES*row) + column;
     b76:	d0 93 d1 03 	sts	0x03D1, r29	; 0x8003d1 <cursor+0x1>
     b7a:	c0 93 d0 03 	sts	0x03D0, r28	; 0x8003d0 <cursor>
	OLED_clear();
	OLED_goto_line(LINE_4);
	OLED_store_str("    LOADING     ");
	for(uint8_t i = 0; i < 3; i+=dot_step){
		OLED_pos(LINE_4,11+i);
		if(i == 0){
     b7e:	11 30       	cpi	r17, 0x01	; 1
			OLED_store_sym('.');
     b80:	69 f4       	brne	.+26     	; 0xb9c <OLED_loading_screen_long+0x44>
     b82:	8e e2       	ldi	r24, 0x2E	; 46
     b84:	3f df       	rcall	.-386    	; 0xa04 <OLED_store_sym>
			} else{
			OLED_store_sym('.');
			OLED_pos(LINE_4,12+i-dot_step);
		}
		OLED_refresh();
     b86:	4e df       	rcall	.-356    	; 0xa24 <OLED_refresh>
     b88:	2f ef       	ldi	r18, 0xFF	; 255
     b8a:	8f ef       	ldi	r24, 0xFF	; 255
     b8c:	91 e1       	ldi	r25, 0x11	; 17
     b8e:	21 50       	subi	r18, 0x01	; 1
     b90:	80 40       	sbci	r24, 0x00	; 0
     b92:	90 40       	sbci	r25, 0x00	; 0
     b94:	e1 f7       	brne	.-8      	; 0xb8e <OLED_loading_screen_long+0x36>
     b96:	00 c0       	rjmp	.+0      	; 0xb98 <OLED_loading_screen_long+0x40>
     b98:	00 00       	nop
     b9a:	eb cf       	rjmp	.-42     	; 0xb72 <OLED_loading_screen_long+0x1a>
	for(uint8_t i = 0; i < 3; i+=dot_step){
		OLED_pos(LINE_4,11+i);
		if(i == 0){
			OLED_store_sym('.');
			} else{
			OLED_store_sym('.');
     b9c:	8e e2       	ldi	r24, 0x2E	; 46
     b9e:	32 df       	rcall	.-412    	; 0xa04 <OLED_store_sym>
	}
	OLED_home();
}

void OLED_pos(uint8_t row, uint8_t column){ // Puts cursor at selected coordinate
	cursor = (N_OLED_LINE_BYTES*row) + column;
     ba0:	d0 93 d1 03 	sts	0x03D1, r29	; 0x8003d1 <cursor+0x1>
     ba4:	c0 93 d0 03 	sts	0x03D0, r28	; 0x8003d0 <cursor>
			OLED_store_sym('.');
			} else{
			OLED_store_sym('.');
			OLED_pos(LINE_4,12+i-dot_step);
		}
		OLED_refresh();
     ba8:	3d df       	rcall	.-390    	; 0xa24 <OLED_refresh>
     baa:	2f ef       	ldi	r18, 0xFF	; 255
     bac:	8f ef       	ldi	r24, 0xFF	; 255
     bae:	91 e1       	ldi	r25, 0x11	; 17
     bb0:	21 50       	subi	r18, 0x01	; 1
     bb2:	80 40       	sbci	r24, 0x00	; 0
     bb4:	90 40       	sbci	r25, 0x00	; 0
     bb6:	e1 f7       	brne	.-8      	; 0xbb0 <OLED_loading_screen_long+0x58>
     bb8:	00 c0       	rjmp	.+0      	; 0xbba <OLED_loading_screen_long+0x62>
     bba:	00 00       	nop
     bbc:	13 30       	cpi	r17, 0x03	; 3
void OLED_loading_screen_long(void){
	uint8_t dot_step = 1;
	OLED_clear();
	OLED_goto_line(LINE_4);
	OLED_store_str("    LOADING     ");
	for(uint8_t i = 0; i < 3; i+=dot_step){
     bbe:	c8 f2       	brcs	.-78     	; 0xb72 <OLED_loading_screen_long+0x1a>
     bc0:	df 91       	pop	r29
			OLED_pos(LINE_4,12+i-dot_step);
		}
		OLED_refresh();
		_delay_ms(1200);
	}
}
     bc2:	cf 91       	pop	r28
     bc4:	1f 91       	pop	r17
     bc6:	08 95       	ret

00000bc8 <OLED_game_over_screen>:
     bc8:	dc de       	rcall	.-584    	; 0x982 <OLED_clear>

void OLED_game_over_screen(void){
	OLED_clear();
	OLED_goto_line(LINE_4);
     bca:	83 e0       	ldi	r24, 0x03	; 3
     bcc:	b4 de       	rcall	.-664    	; 0x936 <OLED_goto_line>
	OLED_store_str("    GAME OVER   ");
     bce:	80 e9       	ldi	r24, 0x90	; 144
     bd0:	92 e0       	ldi	r25, 0x02	; 2
	OLED_refresh();
     bd2:	fb de       	rcall	.-522    	; 0x9ca <OLED_store_str>
     bd4:	27 df       	rcall	.-434    	; 0xa24 <OLED_refresh>
     bd6:	2f ef       	ldi	r18, 0xFF	; 255
     bd8:	8f ef       	ldi	r24, 0xFF	; 255
     bda:	9d e1       	ldi	r25, 0x1D	; 29
     bdc:	21 50       	subi	r18, 0x01	; 1
     bde:	80 40       	sbci	r24, 0x00	; 0
     be0:	90 40       	sbci	r25, 0x00	; 0
     be2:	e1 f7       	brne	.-8      	; 0xbdc <OLED_game_over_screen+0x14>
     be4:	00 c0       	rjmp	.+0      	; 0xbe6 <OLED_game_over_screen+0x1e>
     be6:	00 00       	nop
     be8:	08 95       	ret

00000bea <pong_update_score>:
{ "FFFFFFFFFF",1}
};



void pong_update_score(uint8_t score){
     bea:	ff 92       	push	r15
     bec:	0f 93       	push	r16
     bee:	1f 93       	push	r17
     bf0:	cf 93       	push	r28
     bf2:	df 93       	push	r29
     bf4:	cd b7       	in	r28, 0x3d	; 61
     bf6:	de b7       	in	r29, 0x3e	; 62
     bf8:	60 97       	sbiw	r28, 0x10	; 16
     bfa:	0f b6       	in	r0, 0x3f	; 63
     bfc:	f8 94       	cli
     bfe:	de bf       	out	0x3e, r29	; 62
     c00:	0f be       	out	0x3f, r0	; 63
     c02:	cd bf       	out	0x3d, r28	; 61
     c04:	f8 2e       	mov	r15, r24
	uint8_t i;
	OLED_clear_line(5);
     c06:	85 e0       	ldi	r24, 0x05	; 5
     c08:	a7 de       	rcall	.-690    	; 0x958 <OLED_clear_line>
	OLED_goto_line(5);
     c0a:	85 e0       	ldi	r24, 0x05	; 5
     c0c:	94 de       	rcall	.-728    	; 0x936 <OLED_goto_line>
	char myScore[16];
	sprintf(myScore, " Your score: %d", score);
     c0e:	1f 92       	push	r1
     c10:	ff 92       	push	r15
     c12:	81 ea       	ldi	r24, 0xA1	; 161
     c14:	92 e0       	ldi	r25, 0x02	; 2
     c16:	9f 93       	push	r25
     c18:	8f 93       	push	r24
     c1a:	8e 01       	movw	r16, r28
     c1c:	0f 5f       	subi	r16, 0xFF	; 255
     c1e:	1f 4f       	sbci	r17, 0xFF	; 255
     c20:	1f 93       	push	r17
     c22:	0f 93       	push	r16
	OLED_store_str(myScore);
     c24:	ef d3       	rcall	.+2014   	; 0x1404 <sprintf>
     c26:	c8 01       	movw	r24, r16
     c28:	d0 de       	rcall	.-608    	; 0x9ca <OLED_store_str>
	for (i = 0; (Highscore[i].score >= score && i < 6); i++){
     c2a:	80 91 08 01 	lds	r24, 0x0108	; 0x800108 <Highscore+0x2>
     c2e:	0f 90       	pop	r0
     c30:	0f 90       	pop	r0
     c32:	0f 90       	pop	r0
     c34:	0f 90       	pop	r0
     c36:	0f 90       	pop	r0
     c38:	0f 90       	pop	r0
     c3a:	8f 15       	cp	r24, r15
     c3c:	c8 f0       	brcs	.+50     	; 0xc70 <pong_update_score+0x86>
     c3e:	81 e0       	ldi	r24, 0x01	; 1
     c40:	90 e0       	ldi	r25, 0x00	; 0
	#else
		//round up by default
		__ticks_dc = (uint32_t)(ceil(fabs(__tmp)));
	#endif

	__builtin_avr_delay_cycles(__ticks_dc);
     c42:	20 e1       	ldi	r18, 0x10	; 16
     c44:	2a 95       	dec	r18
     c46:	f1 f7       	brne	.-4      	; 0xc44 <pong_update_score+0x5a>
     c48:	00 c0       	rjmp	.+0      	; 0xc4a <pong_update_score+0x60>
     c4a:	38 2f       	mov	r19, r24
     c4c:	8c 01       	movw	r16, r24
     c4e:	fc 01       	movw	r30, r24
     c50:	ee 0f       	add	r30, r30
     c52:	ff 1f       	adc	r31, r31
     c54:	e8 0f       	add	r30, r24
     c56:	f9 1f       	adc	r31, r25
     c58:	ea 5f       	subi	r30, 0xFA	; 250
     c5a:	fe 4f       	sbci	r31, 0xFE	; 254
     c5c:	22 81       	ldd	r18, Z+2	; 0x02
     c5e:	2f 15       	cp	r18, r15
     c60:	20 f0       	brcs	.+8      	; 0xc6a <pong_update_score+0x80>
     c62:	01 96       	adiw	r24, 0x01	; 1
     c64:	87 30       	cpi	r24, 0x07	; 7
     c66:	91 05       	cpc	r25, r1
     c68:	61 f7       	brne	.-40     	; 0xc42 <pong_update_score+0x58>
		_delay_us(10);
	}
	if(i != 6 ){
     c6a:	36 30       	cpi	r19, 0x06	; 6
     c6c:	19 f4       	brne	.+6      	; 0xc74 <pong_update_score+0x8a>
	OLED_clear_line(5);
	OLED_goto_line(5);
	char myScore[16];
	sprintf(myScore, " Your score: %d", score);
	OLED_store_str(myScore);
	for (i = 0; (Highscore[i].score >= score && i < 6); i++){
     c6e:	1c c0       	rjmp	.+56     	; 0xca8 <pong_update_score+0xbe>
		_delay_us(10);
	}
	if(i != 6 ){
		OLED_clear_line(6);
     c70:	00 e0       	ldi	r16, 0x00	; 0
     c72:	10 e0       	ldi	r17, 0x00	; 0
     c74:	86 e0       	ldi	r24, 0x06	; 6
		OLED_goto_line(6);
     c76:	70 de       	rcall	.-800    	; 0x958 <OLED_clear_line>
     c78:	86 e0       	ldi	r24, 0x06	; 6
     c7a:	5d de       	rcall	.-838    	; 0x936 <OLED_goto_line>
		sprintf(myScore, " Position: %d", i+1);
     c7c:	0f 5f       	subi	r16, 0xFF	; 255
     c7e:	1f 4f       	sbci	r17, 0xFF	; 255
     c80:	1f 93       	push	r17
     c82:	0f 93       	push	r16
     c84:	81 eb       	ldi	r24, 0xB1	; 177
     c86:	92 e0       	ldi	r25, 0x02	; 2
     c88:	9f 93       	push	r25
     c8a:	8f 93       	push	r24
     c8c:	8e 01       	movw	r16, r28
     c8e:	0f 5f       	subi	r16, 0xFF	; 255
     c90:	1f 4f       	sbci	r17, 0xFF	; 255
     c92:	1f 93       	push	r17
     c94:	0f 93       	push	r16
		OLED_store_str(myScore);
     c96:	b6 d3       	rcall	.+1900   	; 0x1404 <sprintf>
     c98:	c8 01       	movw	r24, r16
     c9a:	97 de       	rcall	.-722    	; 0x9ca <OLED_store_str>
     c9c:	0f 90       	pop	r0
     c9e:	0f 90       	pop	r0
     ca0:	0f 90       	pop	r0
     ca2:	0f 90       	pop	r0
     ca4:	0f 90       	pop	r0
	}
	OLED_refresh();
     ca6:	0f 90       	pop	r0
     ca8:	bd de       	rcall	.-646    	; 0xa24 <OLED_refresh>
}
     caa:	60 96       	adiw	r28, 0x10	; 16
     cac:	0f b6       	in	r0, 0x3f	; 63
     cae:	f8 94       	cli
     cb0:	de bf       	out	0x3e, r29	; 62
     cb2:	0f be       	out	0x3f, r0	; 63
     cb4:	cd bf       	out	0x3d, r28	; 61
     cb6:	df 91       	pop	r29
     cb8:	cf 91       	pop	r28
     cba:	1f 91       	pop	r17
     cbc:	0f 91       	pop	r16
     cbe:	ff 90       	pop	r15
     cc0:	08 95       	ret

00000cc2 <pong_init>:
void pong_init(game_mode mode){	
     cc2:	0f 93       	push	r16
     cc4:	1f 93       	push	r17
     cc6:	cf 93       	push	r28
     cc8:	df 93       	push	r29
     cca:	cd b7       	in	r28, 0x3d	; 61
     ccc:	de b7       	in	r29, 0x3e	; 62
     cce:	6b 97       	sbiw	r28, 0x1b	; 27
     cd0:	0f b6       	in	r0, 0x3f	; 63
     cd2:	f8 94       	cli
     cd4:	de bf       	out	0x3e, r29	; 62
     cd6:	0f be       	out	0x3f, r0	; 63
     cd8:	cd bf       	out	0x3d, r28	; 61
     cda:	18 2f       	mov	r17, r24
	
	CAN_msg mode_msg;
	mode_msg.id = PONG_START; 
     cdc:	1a 82       	std	Y+2, r1	; 0x02
     cde:	19 82       	std	Y+1, r1	; 0x01
	mode_msg.length = 1;
     ce0:	81 e0       	ldi	r24, 0x01	; 1
     ce2:	8b 83       	std	Y+3, r24	; 0x03
	mode_msg.data[0] = mode;
     ce4:	1c 83       	std	Y+4, r17	; 0x04
	CAN_message_send(&mode_msg);
     ce6:	ce 01       	movw	r24, r28
     ce8:	01 96       	adiw	r24, 0x01	; 1
     cea:	a5 db       	rcall	.-2230   	; 0x436 <CAN_message_send>
	switch(mode){
     cec:	11 23       	and	r17, r17
     cee:	19 f0       	breq	.+6      	; 0xcf6 <pong_init+0x34>
     cf0:	11 30       	cpi	r17, 0x01	; 1
     cf2:	19 f0       	breq	.+6      	; 0xcfa <pong_init+0x38>
		case JOY:
			OLED_loading_screen();
     cf4:	03 c0       	rjmp	.+6      	; 0xcfc <pong_init+0x3a>
			break;
		case SLIDER:
			OLED_loading_screen_long();
     cf6:	f8 de       	rcall	.-528    	; 0xae8 <OLED_loading_screen>
     cf8:	01 c0       	rjmp	.+2      	; 0xcfc <pong_init+0x3a>
			break;
	}

	OLED_clear();
     cfa:	2e df       	rcall	.-420    	; 0xb58 <OLED_loading_screen_long>
	OLED_store_menu(PLAYING_PONG_MENU);
     cfc:	42 de       	rcall	.-892    	; 0x982 <OLED_clear>
     cfe:	8f eb       	ldi	r24, 0xBF	; 191
     d00:	92 e0       	ldi	r25, 0x02	; 2
     d02:	be de       	rcall	.-644    	; 0xa80 <OLED_store_menu>
	if(Highscore[0].score > 0){
     d04:	80 91 08 01 	lds	r24, 0x0108	; 0x800108 <Highscore+0x2>
     d08:	88 23       	and	r24, r24
		OLED_goto_line(LINE_4);
     d0a:	e1 f0       	breq	.+56     	; 0xd44 <pong_init+0x82>
     d0c:	83 e0       	ldi	r24, 0x03	; 3
     d0e:	13 de       	rcall	.-986    	; 0x936 <OLED_goto_line>
		char top_player[16];
		sprintf(top_player, " %s  %d", Highscore[0].name, Highscore[0].score);
     d10:	e6 e0       	ldi	r30, 0x06	; 6
     d12:	f1 e0       	ldi	r31, 0x01	; 1
     d14:	22 81       	ldd	r18, Z+2	; 0x02
     d16:	80 81       	ld	r24, Z
     d18:	91 81       	ldd	r25, Z+1	; 0x01
     d1a:	1f 92       	push	r1
     d1c:	2f 93       	push	r18
     d1e:	9f 93       	push	r25
     d20:	8f 93       	push	r24
     d22:	83 e0       	ldi	r24, 0x03	; 3
     d24:	93 e0       	ldi	r25, 0x03	; 3
     d26:	9f 93       	push	r25
     d28:	8f 93       	push	r24
     d2a:	8e 01       	movw	r16, r28
     d2c:	04 5f       	subi	r16, 0xF4	; 244
     d2e:	1f 4f       	sbci	r17, 0xFF	; 255
     d30:	1f 93       	push	r17
     d32:	0f 93       	push	r16
		OLED_store_str(top_player);
     d34:	67 d3       	rcall	.+1742   	; 0x1404 <sprintf>
     d36:	c8 01       	movw	r24, r16
     d38:	48 de       	rcall	.-880    	; 0x9ca <OLED_store_str>
     d3a:	0f b6       	in	r0, 0x3f	; 63
     d3c:	f8 94       	cli
     d3e:	de bf       	out	0x3e, r29	; 62
     d40:	0f be       	out	0x3f, r0	; 63
	}
	OLED_refresh();
     d42:	cd bf       	out	0x3d, r28	; 61
     d44:	6f de       	rcall	.-802    	; 0xa24 <OLED_refresh>
}
     d46:	6b 96       	adiw	r28, 0x1b	; 27
     d48:	0f b6       	in	r0, 0x3f	; 63
     d4a:	f8 94       	cli
     d4c:	de bf       	out	0x3e, r29	; 62
     d4e:	0f be       	out	0x3f, r0	; 63
     d50:	cd bf       	out	0x3d, r28	; 61
     d52:	df 91       	pop	r29
     d54:	cf 91       	pop	r28
     d56:	1f 91       	pop	r17
     d58:	0f 91       	pop	r16
     d5a:	08 95       	ret

00000d5c <pong_print_highscore>:
	OLED_game_over_screen();
	pong_update_highscore(score);

}

void pong_print_highscore(void){
     d5c:	df 92       	push	r13
     d5e:	ef 92       	push	r14
     d60:	ff 92       	push	r15
     d62:	0f 93       	push	r16
     d64:	1f 93       	push	r17
     d66:	cf 93       	push	r28
     d68:	df 93       	push	r29
     d6a:	00 d0       	rcall	.+0      	; 0xd6c <pong_print_highscore+0x10>
     d6c:	1f 92       	push	r1
     d6e:	cd b7       	in	r28, 0x3d	; 61
     d70:	de b7       	in	r29, 0x3e	; 62
	OLED_store_menu(HIGHSCORES_MENU);
     d72:	8b e0       	ldi	r24, 0x0B	; 11
     d74:	93 e0       	ldi	r25, 0x03	; 3
     d76:	84 de       	rcall	.-760    	; 0xa80 <OLED_store_menu>
	char str_num[3];
	
	for (uint8_t i = 0; i < 6; i++){
		if(Highscore[i].score == 0){
     d78:	80 91 08 01 	lds	r24, 0x0108	; 0x800108 <Highscore+0x2>
     d7c:	81 11       	cpse	r24, r1
     d7e:	2f c0       	rjmp	.+94     	; 0xdde <pong_print_highscore+0x82>
     d80:	2c c0       	rjmp	.+88     	; 0xdda <pong_print_highscore+0x7e>
     d82:	f7 01       	movw	r30, r14
     d84:	ee 0f       	add	r30, r30
     d86:	ff 1f       	adc	r31, r31
     d88:	ee 0d       	add	r30, r14
     d8a:	ff 1d       	adc	r31, r15
     d8c:	ea 5f       	subi	r30, 0xFA	; 250
     d8e:	fe 4f       	sbci	r31, 0xFE	; 254
     d90:	82 81       	ldd	r24, Z+2	; 0x02
     d92:	88 23       	and	r24, r24
     d94:	11 f1       	breq	.+68     	; 0xdda <pong_print_highscore+0x7e>
			break;
		}
		OLED_goto_line(i+1);
     d96:	d3 94       	inc	r13
     d98:	8d 2d       	mov	r24, r13
     d9a:	cd dd       	rcall	.-1126   	; 0x936 <OLED_goto_line>
		OLED_store_str(Highscore[i].name);
     d9c:	87 01       	movw	r16, r14
     d9e:	00 0f       	add	r16, r16
     da0:	11 1f       	adc	r17, r17
     da2:	0e 0d       	add	r16, r14
     da4:	1f 1d       	adc	r17, r15
     da6:	0a 5f       	subi	r16, 0xFA	; 250
     da8:	1e 4f       	sbci	r17, 0xFE	; 254
     daa:	f8 01       	movw	r30, r16
     dac:	80 81       	ld	r24, Z
     dae:	91 81       	ldd	r25, Z+1	; 0x01
     db0:	0c de       	rcall	.-1000   	; 0x9ca <OLED_store_str>
		OLED_store_str("   ");
     db2:	85 ee       	ldi	r24, 0xE5	; 229
     db4:	91 e0       	ldi	r25, 0x01	; 1
     db6:	09 de       	rcall	.-1006   	; 0x9ca <OLED_store_str>
     db8:	f8 01       	movw	r30, r16
		itoa(Highscore[i].score,str_num,10);
     dba:	82 81       	ldd	r24, Z+2	; 0x02
     dbc:	4a e0       	ldi	r20, 0x0A	; 10
    } else if (__radix < 2 || __radix > 36) {
	*__s = 0;
	return __s;
    } else {
	extern char *__itoa_ncheck (int, char *, unsigned char);
	return __itoa_ncheck (__val, __s, __radix);
     dbe:	be 01       	movw	r22, r28
     dc0:	6f 5f       	subi	r22, 0xFF	; 255
     dc2:	7f 4f       	sbci	r23, 0xFF	; 255
     dc4:	90 e0       	ldi	r25, 0x00	; 0
     dc6:	8b d2       	rcall	.+1302   	; 0x12de <__itoa_ncheck>
		OLED_store_str(str_num);
     dc8:	ce 01       	movw	r24, r28
     dca:	01 96       	adiw	r24, 0x01	; 1
     dcc:	fe dd       	rcall	.-1028   	; 0x9ca <OLED_store_str>
     dce:	ff ef       	ldi	r31, 0xFF	; 255
     dd0:	ef 1a       	sub	r14, r31
     dd2:	ff 0a       	sbc	r15, r31

void pong_print_highscore(void){
	OLED_store_menu(HIGHSCORES_MENU);
	char str_num[3];
	
	for (uint8_t i = 0; i < 6; i++){
     dd4:	86 e0       	ldi	r24, 0x06	; 6
     dd6:	d8 12       	cpse	r13, r24
		OLED_store_str(Highscore[i].name);
		OLED_store_str("   ");
		itoa(Highscore[i].score,str_num,10);
		OLED_store_str(str_num);
	}
	OLED_refresh();
     dd8:	d4 cf       	rjmp	.-88     	; 0xd82 <pong_print_highscore+0x26>
     dda:	24 de       	rcall	.-952    	; 0xa24 <OLED_refresh>
}
     ddc:	1c c0       	rjmp	.+56     	; 0xe16 <pong_print_highscore+0xba>
	
	for (uint8_t i = 0; i < 6; i++){
		if(Highscore[i].score == 0){
			break;
		}
		OLED_goto_line(i+1);
     dde:	81 e0       	ldi	r24, 0x01	; 1
     de0:	aa dd       	rcall	.-1196   	; 0x936 <OLED_goto_line>
		OLED_store_str(Highscore[i].name);
     de2:	06 e0       	ldi	r16, 0x06	; 6
     de4:	11 e0       	ldi	r17, 0x01	; 1
     de6:	f8 01       	movw	r30, r16
     de8:	80 81       	ld	r24, Z
     dea:	91 81       	ldd	r25, Z+1	; 0x01
     dec:	ee dd       	rcall	.-1060   	; 0x9ca <OLED_store_str>
		OLED_store_str("   ");
     dee:	85 ee       	ldi	r24, 0xE5	; 229
     df0:	91 e0       	ldi	r25, 0x01	; 1
     df2:	eb dd       	rcall	.-1066   	; 0x9ca <OLED_store_str>
		itoa(Highscore[i].score,str_num,10);
     df4:	f8 01       	movw	r30, r16
     df6:	82 81       	ldd	r24, Z+2	; 0x02
     df8:	4a e0       	ldi	r20, 0x0A	; 10
     dfa:	be 01       	movw	r22, r28
     dfc:	6f 5f       	subi	r22, 0xFF	; 255
     dfe:	7f 4f       	sbci	r23, 0xFF	; 255
     e00:	90 e0       	ldi	r25, 0x00	; 0
     e02:	6d d2       	rcall	.+1242   	; 0x12de <__itoa_ncheck>
		OLED_store_str(str_num);
     e04:	ce 01       	movw	r24, r28
     e06:	01 96       	adiw	r24, 0x01	; 1
     e08:	e0 dd       	rcall	.-1088   	; 0x9ca <OLED_store_str>
     e0a:	ee 24       	eor	r14, r14
     e0c:	e3 94       	inc	r14
     e0e:	f1 2c       	mov	r15, r1
     e10:	dd 24       	eor	r13, r13
	
	for (uint8_t i = 0; i < 6; i++){
		if(Highscore[i].score == 0){
			break;
		}
		OLED_goto_line(i+1);
     e12:	d3 94       	inc	r13
     e14:	b6 cf       	rjmp	.-148    	; 0xd82 <pong_print_highscore+0x26>
     e16:	0f 90       	pop	r0
		OLED_store_str("   ");
		itoa(Highscore[i].score,str_num,10);
		OLED_store_str(str_num);
	}
	OLED_refresh();
}
     e18:	0f 90       	pop	r0
     e1a:	0f 90       	pop	r0
     e1c:	df 91       	pop	r29
     e1e:	cf 91       	pop	r28
     e20:	1f 91       	pop	r17
     e22:	0f 91       	pop	r16
     e24:	ff 90       	pop	r15
     e26:	ef 90       	pop	r14
     e28:	df 90       	pop	r13
     e2a:	08 95       	ret

00000e2c <pong_place_highscore>:
     e2c:	2f 92       	push	r2
	scanf("%s",buffer);
	pong_place_highscore(buffer,score,lineNum);
	
}

void pong_place_highscore(char* name, uint8_t score, uint8_t lineNum){
     e2e:	3f 92       	push	r3
     e30:	4f 92       	push	r4
     e32:	5f 92       	push	r5
     e34:	6f 92       	push	r6
     e36:	7f 92       	push	r7
     e38:	8f 92       	push	r8
     e3a:	9f 92       	push	r9
     e3c:	af 92       	push	r10
     e3e:	bf 92       	push	r11
     e40:	cf 92       	push	r12
     e42:	df 92       	push	r13
     e44:	ef 92       	push	r14
     e46:	ff 92       	push	r15
     e48:	0f 93       	push	r16
     e4a:	1f 93       	push	r17
     e4c:	cf 93       	push	r28
     e4e:	df 93       	push	r29
     e50:	cd b7       	in	r28, 0x3d	; 61
     e52:	de b7       	in	r29, 0x3e	; 62
     e54:	2a 97       	sbiw	r28, 0x0a	; 10
     e56:	0f b6       	in	r0, 0x3f	; 63
     e58:	f8 94       	cli
     e5a:	de bf       	out	0x3e, r29	; 62
     e5c:	0f be       	out	0x3f, r0	; 63
     e5e:	cd bf       	out	0x3d, r28	; 61
     e60:	2c 01       	movw	r4, r24
     e62:	66 2e       	mov	r6, r22
	for(uint8_t i = 5; i > lineNum; i--){
     e64:	45 30       	cpi	r20, 0x05	; 5
     e66:	88 f1       	brcs	.+98     	; 0xeca <pong_place_highscore+0x9e>
     e68:	50 c0       	rjmp	.+160    	; 0xf0a <pong_place_highscore+0xde>
		for(uint8_t b = 0; b < 10; b++){
			Highscore[i].name[b] = Highscore[i-1].name[b];
     e6a:	27 2d       	mov	r18, r7
     e6c:	38 2d       	mov	r19, r8
     e6e:	d8 01       	movw	r26, r16
     e70:	ed 91       	ld	r30, X+
     e72:	fc 91       	ld	r31, X
     e74:	69 2d       	mov	r22, r9
     e76:	75 2f       	mov	r23, r21
     e78:	d1 01       	movw	r26, r2
     e7a:	ad 90       	ld	r10, X+
     e7c:	bc 90       	ld	r11, X
     e7e:	a8 0e       	add	r10, r24
     e80:	b9 1e       	adc	r11, r25
     e82:	d5 01       	movw	r26, r10
     e84:	bc 90       	ld	r11, X
     e86:	e8 0f       	add	r30, r24
     e88:	f9 1f       	adc	r31, r25
     e8a:	b0 82       	st	Z, r11
     e8c:	01 96       	adiw	r24, 0x01	; 1
	
}

void pong_place_highscore(char* name, uint8_t score, uint8_t lineNum){
	for(uint8_t i = 5; i > lineNum; i--){
		for(uint8_t b = 0; b < 10; b++){
     e8e:	8a 30       	cpi	r24, 0x0A	; 10
     e90:	91 05       	cpc	r25, r1
     e92:	59 f7       	brne	.-42     	; 0xe6a <pong_place_highscore+0x3e>
			Highscore[i].name[b] = Highscore[i-1].name[b];
		}
		Highscore[i].score = Highscore[i-1].score; 
     e94:	fb 01       	movw	r30, r22
     e96:	ee 0f       	add	r30, r30
     e98:	ff 1f       	adc	r31, r31
     e9a:	6e 0f       	add	r22, r30
     e9c:	7f 1f       	adc	r23, r31
     e9e:	fb 01       	movw	r30, r22
     ea0:	ea 5f       	subi	r30, 0xFA	; 250
     ea2:	fe 4f       	sbci	r31, 0xFE	; 254
     ea4:	82 81       	ldd	r24, Z+2	; 0x02
     ea6:	f9 01       	movw	r30, r18
     ea8:	ee 0f       	add	r30, r30
     eaa:	ff 1f       	adc	r31, r31
     eac:	2e 0f       	add	r18, r30
     eae:	3f 1f       	adc	r19, r31
     eb0:	f9 01       	movw	r30, r18
     eb2:	ea 5f       	subi	r30, 0xFA	; 250
     eb4:	fe 4f       	sbci	r31, 0xFE	; 254
     eb6:	82 83       	std	Z+2, r24	; 0x02
     eb8:	b1 e0       	ldi	r27, 0x01	; 1
     eba:	cb 1a       	sub	r12, r27
     ebc:	d1 08       	sbc	r13, r1
     ebe:	e1 e0       	ldi	r30, 0x01	; 1
     ec0:	ee 1a       	sub	r14, r30
     ec2:	f1 08       	sbc	r15, r1
	pong_place_highscore(buffer,score,lineNum);
	
}

void pong_place_highscore(char* name, uint8_t score, uint8_t lineNum){
	for(uint8_t i = 5; i > lineNum; i--){
     ec4:	4e 15       	cp	r20, r14
     ec6:	50 f0       	brcs	.+20     	; 0xedc <pong_place_highscore+0xb0>
     ec8:	20 c0       	rjmp	.+64     	; 0xf0a <pong_place_highscore+0xde>
     eca:	0f 2e       	mov	r0, r31
     ecc:	f5 e0       	ldi	r31, 0x05	; 5
     ece:	ef 2e       	mov	r14, r31
     ed0:	f1 2c       	mov	r15, r1
     ed2:	f0 2d       	mov	r31, r0
     ed4:	68 94       	set
     ed6:	cc 24       	eor	r12, r12
     ed8:	c2 f8       	bld	r12, 2
     eda:	d1 2c       	mov	r13, r1
	scanf("%s",buffer);
	pong_place_highscore(buffer,score,lineNum);
	
}

void pong_place_highscore(char* name, uint8_t score, uint8_t lineNum){
     edc:	80 e0       	ldi	r24, 0x00	; 0
     ede:	90 e0       	ldi	r25, 0x00	; 0
	for(uint8_t i = 5; i > lineNum; i--){
		for(uint8_t b = 0; b < 10; b++){
			Highscore[i].name[b] = Highscore[i-1].name[b];
     ee0:	7e 2c       	mov	r7, r14
     ee2:	8f 2c       	mov	r8, r15
     ee4:	87 01       	movw	r16, r14
     ee6:	00 0f       	add	r16, r16
     ee8:	11 1f       	adc	r17, r17
     eea:	0e 0d       	add	r16, r14
     eec:	1f 1d       	adc	r17, r15
     eee:	0a 5f       	subi	r16, 0xFA	; 250
     ef0:	1e 4f       	sbci	r17, 0xFE	; 254
     ef2:	9c 2c       	mov	r9, r12
     ef4:	5d 2d       	mov	r21, r13
     ef6:	d6 01       	movw	r26, r12
     ef8:	aa 0f       	add	r26, r26
     efa:	bb 1f       	adc	r27, r27
     efc:	ac 0d       	add	r26, r12
     efe:	bd 1d       	adc	r27, r13
     f00:	9d 01       	movw	r18, r26
     f02:	2a 5f       	subi	r18, 0xFA	; 250
     f04:	3e 4f       	sbci	r19, 0xFE	; 254
     f06:	19 01       	movw	r2, r18
     f08:	b0 cf       	rjmp	.-160    	; 0xe6a <pong_place_highscore+0x3e>
		}
		Highscore[i].score = Highscore[i-1].score; 
	}
	//Can not directly copy from scanf buffer
	char buffer[10] = "          ";
     f0a:	8a e0       	ldi	r24, 0x0A	; 10
     f0c:	e8 e1       	ldi	r30, 0x18	; 24
     f0e:	f1 e0       	ldi	r31, 0x01	; 1
     f10:	de 01       	movw	r26, r28
     f12:	11 96       	adiw	r26, 0x01	; 1
     f14:	01 90       	ld	r0, Z+
     f16:	0d 92       	st	X+, r0
     f18:	8a 95       	dec	r24
     f1a:	e1 f7       	brne	.-8      	; 0xf14 <pong_place_highscore+0xe8>
	for(int i = 0;  name[i] != '\0'; i++){
     f1c:	d2 01       	movw	r26, r4
     f1e:	9c 91       	ld	r25, X
     f20:	99 23       	and	r25, r25
     f22:	01 f1       	breq	.+64     	; 0xf64 <pong_place_highscore+0x138>
     f24:	de 01       	movw	r26, r28
     f26:	11 96       	adiw	r26, 0x01	; 1
     f28:	f2 01       	movw	r30, r4
     f2a:	31 96       	adiw	r30, 0x01	; 1
		buffer[i] = name[i];
     f2c:	9d 93       	st	X+, r25
		}
		Highscore[i].score = Highscore[i-1].score; 
	}
	//Can not directly copy from scanf buffer
	char buffer[10] = "          ";
	for(int i = 0;  name[i] != '\0'; i++){
     f2e:	91 91       	ld	r25, Z+
     f30:	91 11       	cpse	r25, r1
     f32:	fc cf       	rjmp	.-8      	; 0xf2c <pong_place_highscore+0x100>
     f34:	17 c0       	rjmp	.+46     	; 0xf64 <pong_place_highscore+0x138>
		buffer[i] = name[i];
	}
	for(int i = 0;  i < 10; i++){
		Highscore[lineNum].name[i] = buffer[i];
     f36:	ba 01       	movw	r22, r20
     f38:	f8 01       	movw	r30, r16
     f3a:	e0 80       	ld	r14, Z
     f3c:	f1 80       	ldd	r15, Z+1	; 0x01
     f3e:	2d 91       	ld	r18, X+
     f40:	f7 01       	movw	r30, r14
     f42:	e8 0f       	add	r30, r24
     f44:	f9 1f       	adc	r31, r25
     f46:	20 83       	st	Z, r18
	//Can not directly copy from scanf buffer
	char buffer[10] = "          ";
	for(int i = 0;  name[i] != '\0'; i++){
		buffer[i] = name[i];
	}
	for(int i = 0;  i < 10; i++){
     f48:	01 96       	adiw	r24, 0x01	; 1
     f4a:	8a 30       	cpi	r24, 0x0A	; 10
     f4c:	91 05       	cpc	r25, r1
     f4e:	99 f7       	brne	.-26     	; 0xf36 <pong_place_highscore+0x10a>
		Highscore[lineNum].name[i] = buffer[i];
	}
	Highscore[lineNum].score = score;
     f50:	fa 01       	movw	r30, r20
     f52:	ee 0f       	add	r30, r30
     f54:	ff 1f       	adc	r31, r31
     f56:	6e 0f       	add	r22, r30
     f58:	7f 1f       	adc	r23, r31
     f5a:	fb 01       	movw	r30, r22
     f5c:	ea 5f       	subi	r30, 0xFA	; 250
     f5e:	fe 4f       	sbci	r31, 0xFE	; 254
     f60:	62 82       	std	Z+2, r6	; 0x02
}
     f62:	0d c0       	rjmp	.+26     	; 0xf7e <pong_place_highscore+0x152>
     f64:	de 01       	movw	r26, r28
     f66:	11 96       	adiw	r26, 0x01	; 1
	pong_place_highscore(buffer,score,lineNum);
	
}

void pong_place_highscore(char* name, uint8_t score, uint8_t lineNum){
	for(uint8_t i = 5; i > lineNum; i--){
     f68:	80 e0       	ldi	r24, 0x00	; 0
     f6a:	90 e0       	ldi	r25, 0x00	; 0
	char buffer[10] = "          ";
	for(int i = 0;  name[i] != '\0'; i++){
		buffer[i] = name[i];
	}
	for(int i = 0;  i < 10; i++){
		Highscore[lineNum].name[i] = buffer[i];
     f6c:	50 e0       	ldi	r21, 0x00	; 0
     f6e:	8a 01       	movw	r16, r20
     f70:	00 0f       	add	r16, r16
     f72:	11 1f       	adc	r17, r17
     f74:	04 0f       	add	r16, r20
     f76:	15 1f       	adc	r17, r21
     f78:	0a 5f       	subi	r16, 0xFA	; 250
     f7a:	1e 4f       	sbci	r17, 0xFE	; 254
     f7c:	dc cf       	rjmp	.-72     	; 0xf36 <pong_place_highscore+0x10a>
	}
	Highscore[lineNum].score = score;
}
     f7e:	2a 96       	adiw	r28, 0x0a	; 10
     f80:	0f b6       	in	r0, 0x3f	; 63
     f82:	f8 94       	cli
     f84:	de bf       	out	0x3e, r29	; 62
     f86:	0f be       	out	0x3f, r0	; 63
     f88:	cd bf       	out	0x3d, r28	; 61
     f8a:	df 91       	pop	r29
     f8c:	cf 91       	pop	r28
     f8e:	1f 91       	pop	r17
     f90:	0f 91       	pop	r16
     f92:	ff 90       	pop	r15
     f94:	ef 90       	pop	r14
     f96:	df 90       	pop	r13
     f98:	cf 90       	pop	r12
     f9a:	bf 90       	pop	r11
     f9c:	af 90       	pop	r10
     f9e:	9f 90       	pop	r9
     fa0:	8f 90       	pop	r8
     fa2:	7f 90       	pop	r7
     fa4:	6f 90       	pop	r6
     fa6:	5f 90       	pop	r5
     fa8:	4f 90       	pop	r4
     faa:	3f 90       	pop	r3
     fac:	2f 90       	pop	r2
     fae:	08 95       	ret

00000fb0 <pong_get_highscore_line>:
		}
	}
	
}

void pong_get_highscore_line(uint8_t score, uint8_t lineNum){
     fb0:	ef 92       	push	r14
     fb2:	ff 92       	push	r15
     fb4:	0f 93       	push	r16
     fb6:	1f 93       	push	r17
     fb8:	cf 93       	push	r28
     fba:	df 93       	push	r29
     fbc:	cd b7       	in	r28, 0x3d	; 61
     fbe:	de b7       	in	r29, 0x3e	; 62
     fc0:	2a 97       	sbiw	r28, 0x0a	; 10
     fc2:	0f b6       	in	r0, 0x3f	; 63
     fc4:	f8 94       	cli
     fc6:	de bf       	out	0x3e, r29	; 62
     fc8:	0f be       	out	0x3f, r0	; 63
     fca:	cd bf       	out	0x3d, r28	; 61
     fcc:	f8 2e       	mov	r15, r24
     fce:	e6 2e       	mov	r14, r22
	OLED_store_menu(CONGRATULATIONS_MENU);
     fd0:	82 e3       	ldi	r24, 0x32	; 50
     fd2:	93 e0       	ldi	r25, 0x03	; 3
     fd4:	55 dd       	rcall	.-1366   	; 0xa80 <OLED_store_menu>
	OLED_refresh();
     fd6:	26 dd       	rcall	.-1460   	; 0xa24 <OLED_refresh>
     fd8:	8e 01       	movw	r16, r28
	char buffer[10];
	scanf("%s",buffer);
     fda:	0f 5f       	subi	r16, 0xFF	; 255
     fdc:	1f 4f       	sbci	r17, 0xFF	; 255
     fde:	1f 93       	push	r17
     fe0:	0f 93       	push	r16
     fe2:	85 e8       	ldi	r24, 0x85	; 133
     fe4:	93 e0       	ldi	r25, 0x03	; 3
     fe6:	9f 93       	push	r25
     fe8:	8f 93       	push	r24
     fea:	f9 d1       	rcall	.+1010   	; 0x13de <scanf>
     fec:	4e 2d       	mov	r20, r14
	pong_place_highscore(buffer,score,lineNum);
     fee:	6f 2d       	mov	r22, r15
     ff0:	c8 01       	movw	r24, r16
     ff2:	1c df       	rcall	.-456    	; 0xe2c <pong_place_highscore>
     ff4:	0f 90       	pop	r0
	
}
     ff6:	0f 90       	pop	r0
     ff8:	0f 90       	pop	r0
     ffa:	0f 90       	pop	r0
     ffc:	2a 96       	adiw	r28, 0x0a	; 10
     ffe:	0f b6       	in	r0, 0x3f	; 63
    1000:	f8 94       	cli
    1002:	de bf       	out	0x3e, r29	; 62
    1004:	0f be       	out	0x3f, r0	; 63
    1006:	cd bf       	out	0x3d, r28	; 61
    1008:	df 91       	pop	r29
    100a:	cf 91       	pop	r28
    100c:	1f 91       	pop	r17
    100e:	0f 91       	pop	r16
    1010:	ff 90       	pop	r15
    1012:	ef 90       	pop	r14
    1014:	08 95       	ret

00001016 <pong_save_highscore>:
    1016:	6f 92       	push	r6
	}
	Highscore[lineNum].score = score;
}


void pong_save_highscore(void){
    1018:	7f 92       	push	r7
    101a:	8f 92       	push	r8
    101c:	9f 92       	push	r9
    101e:	af 92       	push	r10
    1020:	bf 92       	push	r11
    1022:	cf 92       	push	r12
    1024:	df 92       	push	r13
    1026:	ef 92       	push	r14
    1028:	ff 92       	push	r15
    102a:	0f 93       	push	r16
    102c:	1f 93       	push	r17
    102e:	cf 93       	push	r28
    1030:	df 93       	push	r29
    1032:	0a e0       	ldi	r16, 0x0A	; 10
    1034:	10 e0       	ldi	r17, 0x00	; 0
    1036:	a1 2c       	mov	r10, r1
    1038:	b1 2c       	mov	r11, r1
    103a:	25 c0       	rjmp	.+74     	; 0x1086 <pong_save_highscore+0x70>
	unsigned int adr = 0; 
	for(uint8_t i = 0; i < 6; i++){
		for(uint8_t j = 0; j < 10; j++){
			EEPROM_write(adr,Highscore[i].name[j]);
    103c:	c6 2d       	mov	r28, r6
    103e:	d7 2d       	mov	r29, r7
    1040:	d7 01       	movw	r26, r14
    1042:	ed 91       	ld	r30, X+
    1044:	fc 91       	ld	r31, X
    1046:	c4 01       	movw	r24, r8
    1048:	8c 19       	sub	r24, r12
    104a:	9d 09       	sbc	r25, r13
    104c:	e8 0f       	add	r30, r24
    104e:	f9 1f       	adc	r31, r25
    1050:	60 81       	ld	r22, Z
    1052:	c4 01       	movw	r24, r8
    1054:	c0 da       	rcall	.-2688   	; 0x5d6 <EEPROM_write>
			adr++;
    1056:	bf ef       	ldi	r27, 0xFF	; 255
    1058:	8b 1a       	sub	r8, r27
    105a:	9b 0a       	sbc	r9, r27


void pong_save_highscore(void){
	unsigned int adr = 0; 
	for(uint8_t i = 0; i < 6; i++){
		for(uint8_t j = 0; j < 10; j++){
    105c:	80 16       	cp	r8, r16
    105e:	91 06       	cpc	r9, r17
    1060:	69 f7       	brne	.-38     	; 0x103c <pong_save_highscore+0x26>
			EEPROM_write(adr,Highscore[i].name[j]);
			adr++;
		}
		EEPROM_write(adr, Highscore[i].score);
    1062:	ce 01       	movw	r24, r28
    1064:	88 0f       	add	r24, r24
    1066:	99 1f       	adc	r25, r25
    1068:	c8 0f       	add	r28, r24
    106a:	d9 1f       	adc	r29, r25
    106c:	ca 5f       	subi	r28, 0xFA	; 250
    106e:	de 4f       	sbci	r29, 0xFE	; 254
    1070:	6a 81       	ldd	r22, Y+2	; 0x02
    1072:	c8 01       	movw	r24, r16
    1074:	b0 da       	rcall	.-2720   	; 0x5d6 <EEPROM_write>
    1076:	2f ef       	ldi	r18, 0xFF	; 255
    1078:	a2 1a       	sub	r10, r18
    107a:	b2 0a       	sbc	r11, r18
    107c:	05 5f       	subi	r16, 0xF5	; 245
    107e:	1f 4f       	sbci	r17, 0xFF	; 255
}


void pong_save_highscore(void){
	unsigned int adr = 0; 
	for(uint8_t i = 0; i < 6; i++){
    1080:	0c 34       	cpi	r16, 0x4C	; 76
    1082:	11 05       	cpc	r17, r1
    1084:	91 f0       	breq	.+36     	; 0x10aa <pong_save_highscore+0x94>
    1086:	68 01       	movw	r12, r16
    1088:	3a e0       	ldi	r19, 0x0A	; 10
    108a:	c3 1a       	sub	r12, r19
    108c:	d1 08       	sbc	r13, r1
	}
	Highscore[lineNum].score = score;
}


void pong_save_highscore(void){
    108e:	46 01       	movw	r8, r12
	unsigned int adr = 0; 
	for(uint8_t i = 0; i < 6; i++){
		for(uint8_t j = 0; j < 10; j++){
			EEPROM_write(adr,Highscore[i].name[j]);
    1090:	6a 2c       	mov	r6, r10
    1092:	7b 2c       	mov	r7, r11
    1094:	75 01       	movw	r14, r10
    1096:	ee 0c       	add	r14, r14
    1098:	ff 1c       	adc	r15, r15
    109a:	c7 01       	movw	r24, r14
    109c:	8a 0d       	add	r24, r10
    109e:	9b 1d       	adc	r25, r11
    10a0:	dc 01       	movw	r26, r24
    10a2:	aa 5f       	subi	r26, 0xFA	; 250
    10a4:	be 4f       	sbci	r27, 0xFE	; 254
    10a6:	7d 01       	movw	r14, r26
    10a8:	c9 cf       	rjmp	.-110    	; 0x103c <pong_save_highscore+0x26>
			adr++;
		}
		EEPROM_write(adr, Highscore[i].score);
		adr++;
	} 
}
    10aa:	df 91       	pop	r29
    10ac:	cf 91       	pop	r28
    10ae:	1f 91       	pop	r17
    10b0:	0f 91       	pop	r16
    10b2:	ff 90       	pop	r15
    10b4:	ef 90       	pop	r14
    10b6:	df 90       	pop	r13
    10b8:	cf 90       	pop	r12
    10ba:	bf 90       	pop	r11
    10bc:	af 90       	pop	r10
    10be:	9f 90       	pop	r9
    10c0:	8f 90       	pop	r8
    10c2:	7f 90       	pop	r7
    10c4:	6f 90       	pop	r6
    10c6:	08 95       	ret

000010c8 <pong_update_highscore>:
	OLED_refresh();
}

void pong_update_highscore(uint8_t score){
	for (uint8_t i = 0; i < 6; i++){
		if(score > Highscore[i].score){
    10c8:	90 91 08 01 	lds	r25, 0x0108	; 0x800108 <Highscore+0x2>
    10cc:	98 17       	cp	r25, r24
    10ce:	70 f0       	brcs	.+28     	; 0x10ec <pong_update_highscore+0x24>
    10d0:	21 e0       	ldi	r18, 0x01	; 1
    10d2:	30 e0       	ldi	r19, 0x00	; 0
    10d4:	62 2f       	mov	r22, r18
    10d6:	f9 01       	movw	r30, r18
    10d8:	ee 0f       	add	r30, r30
    10da:	ff 1f       	adc	r31, r31
    10dc:	e2 0f       	add	r30, r18
    10de:	f3 1f       	adc	r31, r19
    10e0:	ea 5f       	subi	r30, 0xFA	; 250
    10e2:	fe 4f       	sbci	r31, 0xFE	; 254
    10e4:	92 81       	ldd	r25, Z+2	; 0x02
    10e6:	98 17       	cp	r25, r24
    10e8:	28 f4       	brcc	.+10     	; 0x10f4 <pong_update_highscore+0x2c>
    10ea:	01 c0       	rjmp	.+2      	; 0x10ee <pong_update_highscore+0x26>
	}
	OLED_refresh();
}

void pong_update_highscore(uint8_t score){
	for (uint8_t i = 0; i < 6; i++){
    10ec:	60 e0       	ldi	r22, 0x00	; 0
		if(score > Highscore[i].score){
			pong_get_highscore_line(score, i);
    10ee:	60 df       	rcall	.-320    	; 0xfb0 <pong_get_highscore_line>
			pong_save_highscore();
    10f0:	92 cf       	rjmp	.-220    	; 0x1016 <pong_save_highscore>
    10f2:	08 95       	ret
			break;
    10f4:	2f 5f       	subi	r18, 0xFF	; 255
    10f6:	3f 4f       	sbci	r19, 0xFF	; 255
    10f8:	26 30       	cpi	r18, 0x06	; 6
	}
	OLED_refresh();
}

void pong_update_highscore(uint8_t score){
	for (uint8_t i = 0; i < 6; i++){
    10fa:	31 05       	cpc	r19, r1
    10fc:	59 f7       	brne	.-42     	; 0x10d4 <pong_update_highscore+0xc>
    10fe:	08 95       	ret

00001100 <pong_JOY>:
    1100:	1f 93       	push	r17
		default:
			break;
	}
}

void pong_JOY(void){
    1102:	cf 93       	push	r28
    1104:	df 93       	push	r29
    1106:	cd b7       	in	r28, 0x3d	; 61
    1108:	de b7       	in	r29, 0x3e	; 62
    110a:	2b 97       	sbiw	r28, 0x0b	; 11
    110c:	0f b6       	in	r0, 0x3f	; 63
    110e:	f8 94       	cli
    1110:	de bf       	out	0x3e, r29	; 62
    1112:	0f be       	out	0x3f, r0	; 63
    1114:	cd bf       	out	0x3d, r28	; 61
	pong_init(JOY);
    1116:	80 e0       	ldi	r24, 0x00	; 0
    1118:	d4 dd       	rcall	.-1112   	; 0xcc2 <pong_init>
	CAN_msg results;
	uint8_t score = 0;
    111a:	10 e0       	ldi	r17, 0x00	; 0
	
	while (1){
		
		if(CAN_receive(&results)){
    111c:	ce 01       	movw	r24, r28
    111e:	01 96       	adiw	r24, 0x01	; 1
    1120:	bb d9       	rcall	.-3210   	; 0x498 <CAN_receive>
    1122:	88 23       	and	r24, r24
    1124:	d9 f3       	breq	.-10     	; 0x111c <pong_JOY+0x1c>
			if(results.data[GAME_OVER]){
    1126:	8c 81       	ldd	r24, Y+4	; 0x04
    1128:	81 11       	cpse	r24, r1
				break;
			}
			send_all_joy(PONG_INSTR);
    112a:	09 c0       	rjmp	.+18     	; 0x113e <pong_JOY+0x3e>
    112c:	82 e0       	ldi	r24, 0x02	; 2
    112e:	28 da       	rcall	.-2992   	; 0x580 <send_all_joy>
			if(results.data[GOAL]){
    1130:	8d 81       	ldd	r24, Y+5	; 0x05
    1132:	88 23       	and	r24, r24
				score++;
    1134:	99 f3       	breq	.-26     	; 0x111c <pong_JOY+0x1c>
				pong_update_score(score);
    1136:	1f 5f       	subi	r17, 0xFF	; 255
    1138:	81 2f       	mov	r24, r17
			}
		}
	}
	OLED_game_over_screen();
    113a:	57 dd       	rcall	.-1362   	; 0xbea <pong_update_score>
    113c:	ef cf       	rjmp	.-34     	; 0x111c <pong_JOY+0x1c>
	pong_update_highscore(score);
    113e:	44 dd       	rcall	.-1400   	; 0xbc8 <OLED_game_over_screen>
    1140:	81 2f       	mov	r24, r17
    1142:	c2 df       	rcall	.-124    	; 0x10c8 <pong_update_highscore>

}
    1144:	2b 96       	adiw	r28, 0x0b	; 11
    1146:	0f b6       	in	r0, 0x3f	; 63
    1148:	f8 94       	cli
    114a:	de bf       	out	0x3e, r29	; 62
    114c:	0f be       	out	0x3f, r0	; 63
    114e:	cd bf       	out	0x3d, r28	; 61
    1150:	df 91       	pop	r29
    1152:	cf 91       	pop	r28
    1154:	1f 91       	pop	r17
    1156:	08 95       	ret

00001158 <pong_slider>:



void pong_slider(void){
    1158:	1f 93       	push	r17
    115a:	cf 93       	push	r28
    115c:	df 93       	push	r29
    115e:	cd b7       	in	r28, 0x3d	; 61
    1160:	de b7       	in	r29, 0x3e	; 62
    1162:	2b 97       	sbiw	r28, 0x0b	; 11
    1164:	0f b6       	in	r0, 0x3f	; 63
    1166:	f8 94       	cli
    1168:	de bf       	out	0x3e, r29	; 62
    116a:	0f be       	out	0x3f, r0	; 63
    116c:	cd bf       	out	0x3d, r28	; 61
	pong_init(SLIDER);
    116e:	81 e0       	ldi	r24, 0x01	; 1
    1170:	a8 dd       	rcall	.-1200   	; 0xcc2 <pong_init>
	CAN_msg results;
	uint8_t score = 0;
    1172:	10 e0       	ldi	r17, 0x00	; 0
	
	while (1){
		if(CAN_receive(&results)){
    1174:	ce 01       	movw	r24, r28
    1176:	01 96       	adiw	r24, 0x01	; 1
    1178:	8f d9       	rcall	.-3298   	; 0x498 <CAN_receive>
    117a:	88 23       	and	r24, r24
    117c:	d9 f3       	breq	.-10     	; 0x1174 <pong_slider+0x1c>
			if(results.data[GAME_OVER]){
    117e:	8c 81       	ldd	r24, Y+4	; 0x04
    1180:	81 11       	cpse	r24, r1
				break;
			}
			send_all_slider(PONG_INSTR); //kan vre problematisk  sende dette hvis spillet egt er ferdig
    1182:	09 c0       	rjmp	.+18     	; 0x1196 <pong_slider+0x3e>
    1184:	82 e0       	ldi	r24, 0x02	; 2
    1186:	d1 d9       	rcall	.-3166   	; 0x52a <send_all_slider>
			if(results.data[GOAL]){
    1188:	8d 81       	ldd	r24, Y+5	; 0x05
    118a:	88 23       	and	r24, r24
				score++;
    118c:	99 f3       	breq	.-26     	; 0x1174 <pong_slider+0x1c>
				pong_update_score(score);
    118e:	1f 5f       	subi	r17, 0xFF	; 255
    1190:	81 2f       	mov	r24, r17
			}
		}
	}
	OLED_game_over_screen();
    1192:	2b dd       	rcall	.-1450   	; 0xbea <pong_update_score>
    1194:	ef cf       	rjmp	.-34     	; 0x1174 <pong_slider+0x1c>
	pong_update_highscore(score);
    1196:	18 dd       	rcall	.-1488   	; 0xbc8 <OLED_game_over_screen>
    1198:	81 2f       	mov	r24, r17
    119a:	96 df       	rcall	.-212    	; 0x10c8 <pong_update_highscore>

}
    119c:	2b 96       	adiw	r28, 0x0b	; 11
    119e:	0f b6       	in	r0, 0x3f	; 63
    11a0:	f8 94       	cli
    11a2:	de bf       	out	0x3e, r29	; 62
    11a4:	0f be       	out	0x3f, r0	; 63
    11a6:	cd bf       	out	0x3d, r28	; 61
    11a8:	df 91       	pop	r29
    11aa:	cf 91       	pop	r28
    11ac:	1f 91       	pop	r17
    11ae:	08 95       	ret

000011b0 <pong_play>:
	OLED_refresh();
}


void pong_play(game_mode mode){
	switch(mode){
    11b0:	88 23       	and	r24, r24
    11b2:	19 f0       	breq	.+6      	; 0x11ba <pong_play+0xa>
    11b4:	81 30       	cpi	r24, 0x01	; 1
    11b6:	19 f0       	breq	.+6      	; 0x11be <pong_play+0xe>
    11b8:	08 95       	ret
		case(JOY):
			pong_JOY();
    11ba:	a2 cf       	rjmp	.-188    	; 0x1100 <pong_JOY>
			break;
		case(SLIDER):
			pong_slider();
    11bc:	08 95       	ret
    11be:	cc cf       	rjmp	.-104    	; 0x1158 <pong_slider>
    11c0:	08 95       	ret

000011c2 <pong_load_highscore>:
		}
		EEPROM_write(adr, Highscore[i].score);
		adr++;
	} 
}
void pong_load_highscore(void){
    11c2:	4f 92       	push	r4
    11c4:	5f 92       	push	r5
    11c6:	6f 92       	push	r6
    11c8:	7f 92       	push	r7
    11ca:	8f 92       	push	r8
    11cc:	9f 92       	push	r9
    11ce:	af 92       	push	r10
    11d0:	bf 92       	push	r11
    11d2:	cf 92       	push	r12
    11d4:	df 92       	push	r13
    11d6:	ef 92       	push	r14
    11d8:	ff 92       	push	r15
    11da:	0f 93       	push	r16
    11dc:	1f 93       	push	r17
    11de:	cf 93       	push	r28
    11e0:	df 93       	push	r29
    11e2:	0f 2e       	mov	r0, r31
    11e4:	fa e0       	ldi	r31, 0x0A	; 10
    11e6:	ef 2e       	mov	r14, r31
    11e8:	f1 2c       	mov	r15, r1
    11ea:	f0 2d       	mov	r31, r0
    11ec:	81 2c       	mov	r8, r1
    11ee:	91 2c       	mov	r9, r1
    11f0:	28 c0       	rjmp	.+80     	; 0x1242 <pong_load_highscore+0x80>
	unsigned int adr = 0;
	for(uint8_t i = 0; i < 6; i++){
		for(uint8_t j = 0; j < 10; j++){
			Highscore[i].name[j] = EEPROM_read(adr);
    11f2:	04 2d       	mov	r16, r4
    11f4:	15 2d       	mov	r17, r5
    11f6:	f6 01       	movw	r30, r12
    11f8:	c0 81       	ld	r28, Z
    11fa:	d1 81       	ldd	r29, Z+1	; 0x01
    11fc:	c3 01       	movw	r24, r6
    11fe:	8a 19       	sub	r24, r10
    1200:	9b 09       	sbc	r25, r11
    1202:	c8 0f       	add	r28, r24
    1204:	d9 1f       	adc	r29, r25
    1206:	c3 01       	movw	r24, r6
    1208:	ee d9       	rcall	.-3108   	; 0x5e6 <EEPROM_read>
    120a:	88 83       	st	Y, r24
			adr++;
    120c:	ff ef       	ldi	r31, 0xFF	; 255
    120e:	6f 1a       	sub	r6, r31
    1210:	7f 0a       	sbc	r7, r31
	} 
}
void pong_load_highscore(void){
	unsigned int adr = 0;
	for(uint8_t i = 0; i < 6; i++){
		for(uint8_t j = 0; j < 10; j++){
    1212:	6e 14       	cp	r6, r14
    1214:	7f 04       	cpc	r7, r15
    1216:	69 f7       	brne	.-38     	; 0x11f2 <pong_load_highscore+0x30>
			Highscore[i].name[j] = EEPROM_read(adr);
			adr++;
		}
		Highscore[i].score = EEPROM_read(adr);
    1218:	c7 01       	movw	r24, r14
    121a:	e5 d9       	rcall	.-3126   	; 0x5e6 <EEPROM_read>
    121c:	f8 01       	movw	r30, r16
    121e:	ee 0f       	add	r30, r30
    1220:	ff 1f       	adc	r31, r31
    1222:	0e 0f       	add	r16, r30
    1224:	1f 1f       	adc	r17, r31
    1226:	f8 01       	movw	r30, r16
    1228:	ea 5f       	subi	r30, 0xFA	; 250
    122a:	fe 4f       	sbci	r31, 0xFE	; 254
    122c:	82 83       	std	Z+2, r24	; 0x02
    122e:	2f ef       	ldi	r18, 0xFF	; 255
    1230:	82 1a       	sub	r8, r18
    1232:	92 0a       	sbc	r9, r18
    1234:	3b e0       	ldi	r19, 0x0B	; 11
    1236:	e3 0e       	add	r14, r19
    1238:	f1 1c       	adc	r15, r1
		adr++;
	} 
}
void pong_load_highscore(void){
	unsigned int adr = 0;
	for(uint8_t i = 0; i < 6; i++){
    123a:	8c e4       	ldi	r24, 0x4C	; 76
    123c:	e8 16       	cp	r14, r24
    123e:	f1 04       	cpc	r15, r1
    1240:	91 f0       	breq	.+36     	; 0x1266 <pong_load_highscore+0xa4>
    1242:	57 01       	movw	r10, r14
    1244:	ea e0       	ldi	r30, 0x0A	; 10
    1246:	ae 1a       	sub	r10, r30
    1248:	b1 08       	sbc	r11, r1
		}
		EEPROM_write(adr, Highscore[i].score);
		adr++;
	} 
}
void pong_load_highscore(void){
    124a:	35 01       	movw	r6, r10
	unsigned int adr = 0;
	for(uint8_t i = 0; i < 6; i++){
		for(uint8_t j = 0; j < 10; j++){
			Highscore[i].name[j] = EEPROM_read(adr);
    124c:	48 2c       	mov	r4, r8
    124e:	59 2c       	mov	r5, r9
    1250:	64 01       	movw	r12, r8
    1252:	cc 0c       	add	r12, r12
    1254:	dd 1c       	adc	r13, r13
    1256:	c6 01       	movw	r24, r12
    1258:	88 0d       	add	r24, r8
    125a:	99 1d       	adc	r25, r9
    125c:	9c 01       	movw	r18, r24
    125e:	2a 5f       	subi	r18, 0xFA	; 250
    1260:	3e 4f       	sbci	r19, 0xFE	; 254
    1262:	69 01       	movw	r12, r18
    1264:	c6 cf       	rjmp	.-116    	; 0x11f2 <pong_load_highscore+0x30>
			adr++;
		}
		Highscore[i].score = EEPROM_read(adr);
		adr++;
	}
}
    1266:	df 91       	pop	r29
    1268:	cf 91       	pop	r28
    126a:	1f 91       	pop	r17
    126c:	0f 91       	pop	r16
    126e:	ff 90       	pop	r15
    1270:	ef 90       	pop	r14
    1272:	df 90       	pop	r13
    1274:	cf 90       	pop	r12
    1276:	bf 90       	pop	r11
    1278:	af 90       	pop	r10
    127a:	9f 90       	pop	r9
    127c:	8f 90       	pop	r8
    127e:	7f 90       	pop	r7
    1280:	6f 90       	pop	r6
    1282:	5f 90       	pop	r5
    1284:	4f 90       	pop	r4
    1286:	08 95       	ret

00001288 <pong_highscore_init>:

void pong_highscore_init(void){
	pong_load_highscore();
    1288:	9c cf       	rjmp	.-200    	; 0x11c2 <pong_load_highscore>
    128a:	08 95       	ret

0000128c <SPI_master_init>:
 */ 
 #include "SPI.h"

 
 void SPI_master_init(void){

    128c:	87 b3       	in	r24, 0x17	; 23
    128e:	80 6b       	ori	r24, 0xB0	; 176
    1290:	87 bb       	out	0x17, r24	; 23
	 DDRB |= (1<<DDB5)|(1<< DDB7)|(1<<DDB4);  // Set MOSI, SCK and SS output, all others input
    1292:	8d b1       	in	r24, 0x0d	; 13
    1294:	81 65       	ori	r24, 0x51	; 81
    1296:	8d b9       	out	0x0d, r24	; 13
    1298:	08 95       	ret

0000129a <SPI_read>:
	 SPCR |= (1<<MSTR)|(1<<SPR0)|(1<<SPE); // Enable Master, set clock rate fck/16 and enable SPI
 }
 
 
 char SPI_read(){
    129a:	8f ef       	ldi	r24, 0xFF	; 255
    129c:	8f b9       	out	0x0f, r24	; 15

    129e:	77 9b       	sbis	0x0e, 7	; 14
    12a0:	fe cf       	rjmp	.-4      	; 0x129e <SPI_read+0x4>
	 SPDR = 0xFF; // Send dummy byte to start transmission
    12a2:	8f b1       	in	r24, 0x0f	; 15
	 while(!(SPSR & (1<<SPIF))){} // Wait for finished transmission 
    12a4:	08 95       	ret

000012a6 <SPI_send>:
	 return SPDR; // Return data
 }

    12a6:	8f b9       	out	0x0f, r24	; 15
 void SPI_send(char cData){
    12a8:	77 9b       	sbis	0x0e, 7	; 14
    12aa:	fe cf       	rjmp	.-4      	; 0x12a8 <SPI_send+0x2>
 	
    12ac:	08 95       	ret

000012ae <USART_Transmit>:
}

void USART_Transmit( unsigned char data )
{	
	while ( !( UCSR0A & (1<<UDRE0)) );// Wait for empty transmit buffer
	UDR0 = data; // Put data into buffer, sends the data
    12ae:	5d 9b       	sbis	0x0b, 5	; 11
    12b0:	fe cf       	rjmp	.-4      	; 0x12ae <USART_Transmit>
}
    12b2:	8c b9       	out	0x0c, r24	; 12
    12b4:	08 95       	ret

000012b6 <USART_Receive>:

unsigned char USART_Receive( void )
{
	while ( !(UCSR0A & (1<<RXC0)) );// Wait for data to be received
	return UDR0; // Get and return received data from buffer
    12b6:	5f 9b       	sbis	0x0b, 7	; 11
    12b8:	fe cf       	rjmp	.-4      	; 0x12b6 <USART_Receive>
}
    12ba:	8c b1       	in	r24, 0x0c	; 12

    12bc:	08 95       	ret

000012be <USART_Init>:

void USART_Init(void){

/* Set baud rate */
uint16_t ubrr = F_CPU / 16 / 9600 - 1;
UBRR0H = (unsigned char)(ubrr>>8);
    12be:	10 bc       	out	0x20, r1	; 32
UBRR0L = (unsigned char)ubrr;
    12c0:	8f e1       	ldi	r24, 0x1F	; 31
    12c2:	89 b9       	out	0x09, r24	; 9

UCSR0B = (1<<RXEN0)|(1<<TXEN0); // Enable receiver and transmitter 
    12c4:	88 e1       	ldi	r24, 0x18	; 24
    12c6:	8a b9       	out	0x0a, r24	; 10
UCSR0C = (1<<URSEL0)|(1<<USBS0)|(3<<UCSZ00); // Set frame format: 8data, 2stop bit
clear_bit(UCSR0C, 0); // Clock polarity: set to zero when using asynchronous
    12c8:	8e e8       	ldi	r24, 0x8E	; 142
    12ca:	80 bd       	out	0x20, r24	; 32
fdevopen(USART_Transmit, USART_Receive);
    12cc:	80 b5       	in	r24, 0x20	; 32
    12ce:	8e 7f       	andi	r24, 0xFE	; 254
    12d0:	80 bd       	out	0x20, r24	; 32
}
    12d2:	6b e5       	ldi	r22, 0x5B	; 91
    12d4:	79 e0       	ldi	r23, 0x09	; 9
    12d6:	87 e5       	ldi	r24, 0x57	; 87
    12d8:	99 e0       	ldi	r25, 0x09	; 9
    12da:	24 c0       	rjmp	.+72     	; 0x1324 <fdevopen>
    12dc:	08 95       	ret

000012de <__itoa_ncheck>:
    12de:	bb 27       	eor	r27, r27
    12e0:	4a 30       	cpi	r20, 0x0A	; 10
    12e2:	31 f4       	brne	.+12     	; 0x12f0 <__itoa_ncheck+0x12>
    12e4:	99 23       	and	r25, r25
    12e6:	22 f4       	brpl	.+8      	; 0x12f0 <__itoa_ncheck+0x12>
    12e8:	bd e2       	ldi	r27, 0x2D	; 45
    12ea:	90 95       	com	r25
    12ec:	81 95       	neg	r24
    12ee:	9f 4f       	sbci	r25, 0xFF	; 255
    12f0:	01 c0       	rjmp	.+2      	; 0x12f4 <__utoa_common>

000012f2 <__utoa_ncheck>:
    12f2:	bb 27       	eor	r27, r27

000012f4 <__utoa_common>:
    12f4:	fb 01       	movw	r30, r22
    12f6:	55 27       	eor	r21, r21
    12f8:	aa 27       	eor	r26, r26
    12fa:	88 0f       	add	r24, r24
    12fc:	99 1f       	adc	r25, r25
    12fe:	aa 1f       	adc	r26, r26
    1300:	a4 17       	cp	r26, r20
    1302:	10 f0       	brcs	.+4      	; 0x1308 <__utoa_common+0x14>
    1304:	a4 1b       	sub	r26, r20
    1306:	83 95       	inc	r24
    1308:	50 51       	subi	r21, 0x10	; 16
    130a:	b9 f7       	brne	.-18     	; 0x12fa <__utoa_common+0x6>
    130c:	a0 5d       	subi	r26, 0xD0	; 208
    130e:	aa 33       	cpi	r26, 0x3A	; 58
    1310:	08 f0       	brcs	.+2      	; 0x1314 <__utoa_common+0x20>
    1312:	a9 5d       	subi	r26, 0xD9	; 217
    1314:	a1 93       	st	Z+, r26
    1316:	00 97       	sbiw	r24, 0x00	; 0
    1318:	79 f7       	brne	.-34     	; 0x12f8 <__utoa_common+0x4>
    131a:	b1 11       	cpse	r27, r1
    131c:	b1 93       	st	Z+, r27
    131e:	11 92       	st	Z+, r1
    1320:	cb 01       	movw	r24, r22
    1322:	5a c6       	rjmp	.+3252   	; 0x1fd8 <strrev>

00001324 <fdevopen>:
    1324:	0f 93       	push	r16
    1326:	1f 93       	push	r17
    1328:	cf 93       	push	r28
    132a:	df 93       	push	r29
    132c:	00 97       	sbiw	r24, 0x00	; 0
    132e:	31 f4       	brne	.+12     	; 0x133c <fdevopen+0x18>
    1330:	61 15       	cp	r22, r1
    1332:	71 05       	cpc	r23, r1
    1334:	19 f4       	brne	.+6      	; 0x133c <fdevopen+0x18>
    1336:	80 e0       	ldi	r24, 0x00	; 0
    1338:	90 e0       	ldi	r25, 0x00	; 0
    133a:	39 c0       	rjmp	.+114    	; 0x13ae <fdevopen+0x8a>
    133c:	8b 01       	movw	r16, r22
    133e:	ec 01       	movw	r28, r24
    1340:	6e e0       	ldi	r22, 0x0E	; 14
    1342:	70 e0       	ldi	r23, 0x00	; 0
    1344:	81 e0       	ldi	r24, 0x01	; 1
    1346:	90 e0       	ldi	r25, 0x00	; 0
    1348:	dc d4       	rcall	.+2488   	; 0x1d02 <calloc>
    134a:	fc 01       	movw	r30, r24
    134c:	89 2b       	or	r24, r25
    134e:	99 f3       	breq	.-26     	; 0x1336 <fdevopen+0x12>
    1350:	80 e8       	ldi	r24, 0x80	; 128
    1352:	83 83       	std	Z+3, r24	; 0x03
    1354:	01 15       	cp	r16, r1
    1356:	11 05       	cpc	r17, r1
    1358:	71 f0       	breq	.+28     	; 0x1376 <fdevopen+0x52>
    135a:	13 87       	std	Z+11, r17	; 0x0b
    135c:	02 87       	std	Z+10, r16	; 0x0a
    135e:	81 e8       	ldi	r24, 0x81	; 129
    1360:	83 83       	std	Z+3, r24	; 0x03
    1362:	80 91 d2 03 	lds	r24, 0x03D2	; 0x8003d2 <__iob>
    1366:	90 91 d3 03 	lds	r25, 0x03D3	; 0x8003d3 <__iob+0x1>
    136a:	89 2b       	or	r24, r25
    136c:	21 f4       	brne	.+8      	; 0x1376 <fdevopen+0x52>
    136e:	f0 93 d3 03 	sts	0x03D3, r31	; 0x8003d3 <__iob+0x1>
    1372:	e0 93 d2 03 	sts	0x03D2, r30	; 0x8003d2 <__iob>
    1376:	20 97       	sbiw	r28, 0x00	; 0
    1378:	c9 f0       	breq	.+50     	; 0x13ac <fdevopen+0x88>
    137a:	d1 87       	std	Z+9, r29	; 0x09
    137c:	c0 87       	std	Z+8, r28	; 0x08
    137e:	83 81       	ldd	r24, Z+3	; 0x03
    1380:	82 60       	ori	r24, 0x02	; 2
    1382:	83 83       	std	Z+3, r24	; 0x03
    1384:	80 91 d4 03 	lds	r24, 0x03D4	; 0x8003d4 <__iob+0x2>
    1388:	90 91 d5 03 	lds	r25, 0x03D5	; 0x8003d5 <__iob+0x3>
    138c:	89 2b       	or	r24, r25
    138e:	71 f4       	brne	.+28     	; 0x13ac <fdevopen+0x88>
    1390:	f0 93 d5 03 	sts	0x03D5, r31	; 0x8003d5 <__iob+0x3>
    1394:	e0 93 d4 03 	sts	0x03D4, r30	; 0x8003d4 <__iob+0x2>
    1398:	80 91 d6 03 	lds	r24, 0x03D6	; 0x8003d6 <__iob+0x4>
    139c:	90 91 d7 03 	lds	r25, 0x03D7	; 0x8003d7 <__iob+0x5>
    13a0:	89 2b       	or	r24, r25
    13a2:	21 f4       	brne	.+8      	; 0x13ac <fdevopen+0x88>
    13a4:	f0 93 d7 03 	sts	0x03D7, r31	; 0x8003d7 <__iob+0x5>
    13a8:	e0 93 d6 03 	sts	0x03D6, r30	; 0x8003d6 <__iob+0x4>
    13ac:	cf 01       	movw	r24, r30
    13ae:	df 91       	pop	r29
    13b0:	cf 91       	pop	r28
    13b2:	1f 91       	pop	r17
    13b4:	0f 91       	pop	r16
    13b6:	08 95       	ret

000013b8 <printf>:
    13b8:	a0 e0       	ldi	r26, 0x00	; 0
    13ba:	b0 e0       	ldi	r27, 0x00	; 0
    13bc:	e1 ee       	ldi	r30, 0xE1	; 225
    13be:	f9 e0       	ldi	r31, 0x09	; 9
    13c0:	1f c7       	rjmp	.+3646   	; 0x2200 <__prologue_saves__+0x20>
    13c2:	ae 01       	movw	r20, r28
    13c4:	4b 5f       	subi	r20, 0xFB	; 251
    13c6:	5f 4f       	sbci	r21, 0xFF	; 255
    13c8:	fa 01       	movw	r30, r20
    13ca:	61 91       	ld	r22, Z+
    13cc:	71 91       	ld	r23, Z+
    13ce:	af 01       	movw	r20, r30
    13d0:	80 91 d4 03 	lds	r24, 0x03D4	; 0x8003d4 <__iob+0x2>
    13d4:	90 91 d5 03 	lds	r25, 0x03D5	; 0x8003d5 <__iob+0x3>
    13d8:	34 d0       	rcall	.+104    	; 0x1442 <vfprintf>
    13da:	e2 e0       	ldi	r30, 0x02	; 2
    13dc:	2d c7       	rjmp	.+3674   	; 0x2238 <__epilogue_restores__+0x20>

000013de <scanf>:
    13de:	a0 e0       	ldi	r26, 0x00	; 0
    13e0:	b0 e0       	ldi	r27, 0x00	; 0
    13e2:	e4 ef       	ldi	r30, 0xF4	; 244
    13e4:	f9 e0       	ldi	r31, 0x09	; 9
    13e6:	0c c7       	rjmp	.+3608   	; 0x2200 <__prologue_saves__+0x20>
    13e8:	ae 01       	movw	r20, r28
    13ea:	4b 5f       	subi	r20, 0xFB	; 251
    13ec:	5f 4f       	sbci	r21, 0xFF	; 255
    13ee:	fa 01       	movw	r30, r20
    13f0:	61 91       	ld	r22, Z+
    13f2:	71 91       	ld	r23, Z+
    13f4:	af 01       	movw	r20, r30
    13f6:	80 91 d2 03 	lds	r24, 0x03D2	; 0x8003d2 <__iob>
    13fa:	90 91 d3 03 	lds	r25, 0x03D3	; 0x8003d3 <__iob+0x1>
    13fe:	80 d3       	rcall	.+1792   	; 0x1b00 <vfscanf>
    1400:	e2 e0       	ldi	r30, 0x02	; 2
    1402:	1a c7       	rjmp	.+3636   	; 0x2238 <__epilogue_restores__+0x20>

00001404 <sprintf>:
    1404:	ae e0       	ldi	r26, 0x0E	; 14
    1406:	b0 e0       	ldi	r27, 0x00	; 0
    1408:	e7 e0       	ldi	r30, 0x07	; 7
    140a:	fa e0       	ldi	r31, 0x0A	; 10
    140c:	f7 c6       	rjmp	.+3566   	; 0x21fc <__prologue_saves__+0x1c>
    140e:	0d 89       	ldd	r16, Y+21	; 0x15
    1410:	1e 89       	ldd	r17, Y+22	; 0x16
    1412:	86 e0       	ldi	r24, 0x06	; 6
    1414:	8c 83       	std	Y+4, r24	; 0x04
    1416:	1a 83       	std	Y+2, r17	; 0x02
    1418:	09 83       	std	Y+1, r16	; 0x01
    141a:	8f ef       	ldi	r24, 0xFF	; 255
    141c:	9f e7       	ldi	r25, 0x7F	; 127
    141e:	9e 83       	std	Y+6, r25	; 0x06
    1420:	8d 83       	std	Y+5, r24	; 0x05
    1422:	ae 01       	movw	r20, r28
    1424:	47 5e       	subi	r20, 0xE7	; 231
    1426:	5f 4f       	sbci	r21, 0xFF	; 255
    1428:	6f 89       	ldd	r22, Y+23	; 0x17
    142a:	78 8d       	ldd	r23, Y+24	; 0x18
    142c:	ce 01       	movw	r24, r28
    142e:	01 96       	adiw	r24, 0x01	; 1
    1430:	08 d0       	rcall	.+16     	; 0x1442 <vfprintf>
    1432:	ef 81       	ldd	r30, Y+7	; 0x07
    1434:	f8 85       	ldd	r31, Y+8	; 0x08
    1436:	e0 0f       	add	r30, r16
    1438:	f1 1f       	adc	r31, r17
    143a:	10 82       	st	Z, r1
    143c:	2e 96       	adiw	r28, 0x0e	; 14
    143e:	e4 e0       	ldi	r30, 0x04	; 4
    1440:	f9 c6       	rjmp	.+3570   	; 0x2234 <__epilogue_restores__+0x1c>

00001442 <vfprintf>:
    1442:	ab e0       	ldi	r26, 0x0B	; 11
    1444:	b0 e0       	ldi	r27, 0x00	; 0
    1446:	e6 e2       	ldi	r30, 0x26	; 38
    1448:	fa e0       	ldi	r31, 0x0A	; 10
    144a:	ca c6       	rjmp	.+3476   	; 0x21e0 <__prologue_saves__>
    144c:	6c 01       	movw	r12, r24
    144e:	7b 01       	movw	r14, r22
    1450:	8a 01       	movw	r16, r20
    1452:	fc 01       	movw	r30, r24
    1454:	17 82       	std	Z+7, r1	; 0x07
    1456:	16 82       	std	Z+6, r1	; 0x06
    1458:	83 81       	ldd	r24, Z+3	; 0x03
    145a:	81 ff       	sbrs	r24, 1
    145c:	bf c1       	rjmp	.+894    	; 0x17dc <vfprintf+0x39a>
    145e:	ce 01       	movw	r24, r28
    1460:	01 96       	adiw	r24, 0x01	; 1
    1462:	3c 01       	movw	r6, r24
    1464:	f6 01       	movw	r30, r12
    1466:	93 81       	ldd	r25, Z+3	; 0x03
    1468:	f7 01       	movw	r30, r14
    146a:	93 fd       	sbrc	r25, 3
    146c:	85 91       	lpm	r24, Z+
    146e:	93 ff       	sbrs	r25, 3
    1470:	81 91       	ld	r24, Z+
    1472:	7f 01       	movw	r14, r30
    1474:	88 23       	and	r24, r24
    1476:	09 f4       	brne	.+2      	; 0x147a <vfprintf+0x38>
    1478:	ad c1       	rjmp	.+858    	; 0x17d4 <vfprintf+0x392>
    147a:	85 32       	cpi	r24, 0x25	; 37
    147c:	39 f4       	brne	.+14     	; 0x148c <vfprintf+0x4a>
    147e:	93 fd       	sbrc	r25, 3
    1480:	85 91       	lpm	r24, Z+
    1482:	93 ff       	sbrs	r25, 3
    1484:	81 91       	ld	r24, Z+
    1486:	7f 01       	movw	r14, r30
    1488:	85 32       	cpi	r24, 0x25	; 37
    148a:	21 f4       	brne	.+8      	; 0x1494 <vfprintf+0x52>
    148c:	b6 01       	movw	r22, r12
    148e:	90 e0       	ldi	r25, 0x00	; 0
    1490:	f1 d5       	rcall	.+3042   	; 0x2074 <fputc>
    1492:	e8 cf       	rjmp	.-48     	; 0x1464 <vfprintf+0x22>
    1494:	91 2c       	mov	r9, r1
    1496:	21 2c       	mov	r2, r1
    1498:	31 2c       	mov	r3, r1
    149a:	ff e1       	ldi	r31, 0x1F	; 31
    149c:	f3 15       	cp	r31, r3
    149e:	d8 f0       	brcs	.+54     	; 0x14d6 <vfprintf+0x94>
    14a0:	8b 32       	cpi	r24, 0x2B	; 43
    14a2:	79 f0       	breq	.+30     	; 0x14c2 <vfprintf+0x80>
    14a4:	38 f4       	brcc	.+14     	; 0x14b4 <vfprintf+0x72>
    14a6:	80 32       	cpi	r24, 0x20	; 32
    14a8:	79 f0       	breq	.+30     	; 0x14c8 <vfprintf+0x86>
    14aa:	83 32       	cpi	r24, 0x23	; 35
    14ac:	a1 f4       	brne	.+40     	; 0x14d6 <vfprintf+0x94>
    14ae:	23 2d       	mov	r18, r3
    14b0:	20 61       	ori	r18, 0x10	; 16
    14b2:	1d c0       	rjmp	.+58     	; 0x14ee <vfprintf+0xac>
    14b4:	8d 32       	cpi	r24, 0x2D	; 45
    14b6:	61 f0       	breq	.+24     	; 0x14d0 <vfprintf+0x8e>
    14b8:	80 33       	cpi	r24, 0x30	; 48
    14ba:	69 f4       	brne	.+26     	; 0x14d6 <vfprintf+0x94>
    14bc:	23 2d       	mov	r18, r3
    14be:	21 60       	ori	r18, 0x01	; 1
    14c0:	16 c0       	rjmp	.+44     	; 0x14ee <vfprintf+0xac>
    14c2:	83 2d       	mov	r24, r3
    14c4:	82 60       	ori	r24, 0x02	; 2
    14c6:	38 2e       	mov	r3, r24
    14c8:	e3 2d       	mov	r30, r3
    14ca:	e4 60       	ori	r30, 0x04	; 4
    14cc:	3e 2e       	mov	r3, r30
    14ce:	2a c0       	rjmp	.+84     	; 0x1524 <vfprintf+0xe2>
    14d0:	f3 2d       	mov	r31, r3
    14d2:	f8 60       	ori	r31, 0x08	; 8
    14d4:	1d c0       	rjmp	.+58     	; 0x1510 <vfprintf+0xce>
    14d6:	37 fc       	sbrc	r3, 7
    14d8:	2d c0       	rjmp	.+90     	; 0x1534 <vfprintf+0xf2>
    14da:	20 ed       	ldi	r18, 0xD0	; 208
    14dc:	28 0f       	add	r18, r24
    14de:	2a 30       	cpi	r18, 0x0A	; 10
    14e0:	40 f0       	brcs	.+16     	; 0x14f2 <vfprintf+0xb0>
    14e2:	8e 32       	cpi	r24, 0x2E	; 46
    14e4:	b9 f4       	brne	.+46     	; 0x1514 <vfprintf+0xd2>
    14e6:	36 fc       	sbrc	r3, 6
    14e8:	75 c1       	rjmp	.+746    	; 0x17d4 <vfprintf+0x392>
    14ea:	23 2d       	mov	r18, r3
    14ec:	20 64       	ori	r18, 0x40	; 64
    14ee:	32 2e       	mov	r3, r18
    14f0:	19 c0       	rjmp	.+50     	; 0x1524 <vfprintf+0xe2>
    14f2:	36 fe       	sbrs	r3, 6
    14f4:	06 c0       	rjmp	.+12     	; 0x1502 <vfprintf+0xc0>
    14f6:	8a e0       	ldi	r24, 0x0A	; 10
    14f8:	98 9e       	mul	r9, r24
    14fa:	20 0d       	add	r18, r0
    14fc:	11 24       	eor	r1, r1
    14fe:	92 2e       	mov	r9, r18
    1500:	11 c0       	rjmp	.+34     	; 0x1524 <vfprintf+0xe2>
    1502:	ea e0       	ldi	r30, 0x0A	; 10
    1504:	2e 9e       	mul	r2, r30
    1506:	20 0d       	add	r18, r0
    1508:	11 24       	eor	r1, r1
    150a:	22 2e       	mov	r2, r18
    150c:	f3 2d       	mov	r31, r3
    150e:	f0 62       	ori	r31, 0x20	; 32
    1510:	3f 2e       	mov	r3, r31
    1512:	08 c0       	rjmp	.+16     	; 0x1524 <vfprintf+0xe2>
    1514:	8c 36       	cpi	r24, 0x6C	; 108
    1516:	21 f4       	brne	.+8      	; 0x1520 <vfprintf+0xde>
    1518:	83 2d       	mov	r24, r3
    151a:	80 68       	ori	r24, 0x80	; 128
    151c:	38 2e       	mov	r3, r24
    151e:	02 c0       	rjmp	.+4      	; 0x1524 <vfprintf+0xe2>
    1520:	88 36       	cpi	r24, 0x68	; 104
    1522:	41 f4       	brne	.+16     	; 0x1534 <vfprintf+0xf2>
    1524:	f7 01       	movw	r30, r14
    1526:	93 fd       	sbrc	r25, 3
    1528:	85 91       	lpm	r24, Z+
    152a:	93 ff       	sbrs	r25, 3
    152c:	81 91       	ld	r24, Z+
    152e:	7f 01       	movw	r14, r30
    1530:	81 11       	cpse	r24, r1
    1532:	b3 cf       	rjmp	.-154    	; 0x149a <vfprintf+0x58>
    1534:	98 2f       	mov	r25, r24
    1536:	9f 7d       	andi	r25, 0xDF	; 223
    1538:	95 54       	subi	r25, 0x45	; 69
    153a:	93 30       	cpi	r25, 0x03	; 3
    153c:	28 f4       	brcc	.+10     	; 0x1548 <vfprintf+0x106>
    153e:	0c 5f       	subi	r16, 0xFC	; 252
    1540:	1f 4f       	sbci	r17, 0xFF	; 255
    1542:	9f e3       	ldi	r25, 0x3F	; 63
    1544:	99 83       	std	Y+1, r25	; 0x01
    1546:	0d c0       	rjmp	.+26     	; 0x1562 <vfprintf+0x120>
    1548:	83 36       	cpi	r24, 0x63	; 99
    154a:	31 f0       	breq	.+12     	; 0x1558 <vfprintf+0x116>
    154c:	83 37       	cpi	r24, 0x73	; 115
    154e:	71 f0       	breq	.+28     	; 0x156c <vfprintf+0x12a>
    1550:	83 35       	cpi	r24, 0x53	; 83
    1552:	09 f0       	breq	.+2      	; 0x1556 <vfprintf+0x114>
    1554:	55 c0       	rjmp	.+170    	; 0x1600 <vfprintf+0x1be>
    1556:	20 c0       	rjmp	.+64     	; 0x1598 <vfprintf+0x156>
    1558:	f8 01       	movw	r30, r16
    155a:	80 81       	ld	r24, Z
    155c:	89 83       	std	Y+1, r24	; 0x01
    155e:	0e 5f       	subi	r16, 0xFE	; 254
    1560:	1f 4f       	sbci	r17, 0xFF	; 255
    1562:	88 24       	eor	r8, r8
    1564:	83 94       	inc	r8
    1566:	91 2c       	mov	r9, r1
    1568:	53 01       	movw	r10, r6
    156a:	12 c0       	rjmp	.+36     	; 0x1590 <vfprintf+0x14e>
    156c:	28 01       	movw	r4, r16
    156e:	f2 e0       	ldi	r31, 0x02	; 2
    1570:	4f 0e       	add	r4, r31
    1572:	51 1c       	adc	r5, r1
    1574:	f8 01       	movw	r30, r16
    1576:	a0 80       	ld	r10, Z
    1578:	b1 80       	ldd	r11, Z+1	; 0x01
    157a:	36 fe       	sbrs	r3, 6
    157c:	03 c0       	rjmp	.+6      	; 0x1584 <vfprintf+0x142>
    157e:	69 2d       	mov	r22, r9
    1580:	70 e0       	ldi	r23, 0x00	; 0
    1582:	02 c0       	rjmp	.+4      	; 0x1588 <vfprintf+0x146>
    1584:	6f ef       	ldi	r22, 0xFF	; 255
    1586:	7f ef       	ldi	r23, 0xFF	; 255
    1588:	c5 01       	movw	r24, r10
    158a:	1b d5       	rcall	.+2614   	; 0x1fc2 <strnlen>
    158c:	4c 01       	movw	r8, r24
    158e:	82 01       	movw	r16, r4
    1590:	f3 2d       	mov	r31, r3
    1592:	ff 77       	andi	r31, 0x7F	; 127
    1594:	3f 2e       	mov	r3, r31
    1596:	15 c0       	rjmp	.+42     	; 0x15c2 <vfprintf+0x180>
    1598:	28 01       	movw	r4, r16
    159a:	22 e0       	ldi	r18, 0x02	; 2
    159c:	42 0e       	add	r4, r18
    159e:	51 1c       	adc	r5, r1
    15a0:	f8 01       	movw	r30, r16
    15a2:	a0 80       	ld	r10, Z
    15a4:	b1 80       	ldd	r11, Z+1	; 0x01
    15a6:	36 fe       	sbrs	r3, 6
    15a8:	03 c0       	rjmp	.+6      	; 0x15b0 <vfprintf+0x16e>
    15aa:	69 2d       	mov	r22, r9
    15ac:	70 e0       	ldi	r23, 0x00	; 0
    15ae:	02 c0       	rjmp	.+4      	; 0x15b4 <vfprintf+0x172>
    15b0:	6f ef       	ldi	r22, 0xFF	; 255
    15b2:	7f ef       	ldi	r23, 0xFF	; 255
    15b4:	c5 01       	movw	r24, r10
    15b6:	f3 d4       	rcall	.+2534   	; 0x1f9e <strnlen_P>
    15b8:	4c 01       	movw	r8, r24
    15ba:	f3 2d       	mov	r31, r3
    15bc:	f0 68       	ori	r31, 0x80	; 128
    15be:	3f 2e       	mov	r3, r31
    15c0:	82 01       	movw	r16, r4
    15c2:	33 fc       	sbrc	r3, 3
    15c4:	19 c0       	rjmp	.+50     	; 0x15f8 <vfprintf+0x1b6>
    15c6:	82 2d       	mov	r24, r2
    15c8:	90 e0       	ldi	r25, 0x00	; 0
    15ca:	88 16       	cp	r8, r24
    15cc:	99 06       	cpc	r9, r25
    15ce:	a0 f4       	brcc	.+40     	; 0x15f8 <vfprintf+0x1b6>
    15d0:	b6 01       	movw	r22, r12
    15d2:	80 e2       	ldi	r24, 0x20	; 32
    15d4:	90 e0       	ldi	r25, 0x00	; 0
    15d6:	4e d5       	rcall	.+2716   	; 0x2074 <fputc>
    15d8:	2a 94       	dec	r2
    15da:	f5 cf       	rjmp	.-22     	; 0x15c6 <vfprintf+0x184>
    15dc:	f5 01       	movw	r30, r10
    15de:	37 fc       	sbrc	r3, 7
    15e0:	85 91       	lpm	r24, Z+
    15e2:	37 fe       	sbrs	r3, 7
    15e4:	81 91       	ld	r24, Z+
    15e6:	5f 01       	movw	r10, r30
    15e8:	b6 01       	movw	r22, r12
    15ea:	90 e0       	ldi	r25, 0x00	; 0
    15ec:	43 d5       	rcall	.+2694   	; 0x2074 <fputc>
    15ee:	21 10       	cpse	r2, r1
    15f0:	2a 94       	dec	r2
    15f2:	21 e0       	ldi	r18, 0x01	; 1
    15f4:	82 1a       	sub	r8, r18
    15f6:	91 08       	sbc	r9, r1
    15f8:	81 14       	cp	r8, r1
    15fa:	91 04       	cpc	r9, r1
    15fc:	79 f7       	brne	.-34     	; 0x15dc <vfprintf+0x19a>
    15fe:	e1 c0       	rjmp	.+450    	; 0x17c2 <vfprintf+0x380>
    1600:	84 36       	cpi	r24, 0x64	; 100
    1602:	11 f0       	breq	.+4      	; 0x1608 <vfprintf+0x1c6>
    1604:	89 36       	cpi	r24, 0x69	; 105
    1606:	39 f5       	brne	.+78     	; 0x1656 <vfprintf+0x214>
    1608:	f8 01       	movw	r30, r16
    160a:	37 fe       	sbrs	r3, 7
    160c:	07 c0       	rjmp	.+14     	; 0x161c <vfprintf+0x1da>
    160e:	60 81       	ld	r22, Z
    1610:	71 81       	ldd	r23, Z+1	; 0x01
    1612:	82 81       	ldd	r24, Z+2	; 0x02
    1614:	93 81       	ldd	r25, Z+3	; 0x03
    1616:	0c 5f       	subi	r16, 0xFC	; 252
    1618:	1f 4f       	sbci	r17, 0xFF	; 255
    161a:	08 c0       	rjmp	.+16     	; 0x162c <vfprintf+0x1ea>
    161c:	60 81       	ld	r22, Z
    161e:	71 81       	ldd	r23, Z+1	; 0x01
    1620:	07 2e       	mov	r0, r23
    1622:	00 0c       	add	r0, r0
    1624:	88 0b       	sbc	r24, r24
    1626:	99 0b       	sbc	r25, r25
    1628:	0e 5f       	subi	r16, 0xFE	; 254
    162a:	1f 4f       	sbci	r17, 0xFF	; 255
    162c:	f3 2d       	mov	r31, r3
    162e:	ff 76       	andi	r31, 0x6F	; 111
    1630:	3f 2e       	mov	r3, r31
    1632:	97 ff       	sbrs	r25, 7
    1634:	09 c0       	rjmp	.+18     	; 0x1648 <vfprintf+0x206>
    1636:	90 95       	com	r25
    1638:	80 95       	com	r24
    163a:	70 95       	com	r23
    163c:	61 95       	neg	r22
    163e:	7f 4f       	sbci	r23, 0xFF	; 255
    1640:	8f 4f       	sbci	r24, 0xFF	; 255
    1642:	9f 4f       	sbci	r25, 0xFF	; 255
    1644:	f0 68       	ori	r31, 0x80	; 128
    1646:	3f 2e       	mov	r3, r31
    1648:	2a e0       	ldi	r18, 0x0A	; 10
    164a:	30 e0       	ldi	r19, 0x00	; 0
    164c:	a3 01       	movw	r20, r6
    164e:	67 d5       	rcall	.+2766   	; 0x211e <__ultoa_invert>
    1650:	88 2e       	mov	r8, r24
    1652:	86 18       	sub	r8, r6
    1654:	44 c0       	rjmp	.+136    	; 0x16de <vfprintf+0x29c>
    1656:	85 37       	cpi	r24, 0x75	; 117
    1658:	31 f4       	brne	.+12     	; 0x1666 <vfprintf+0x224>
    165a:	23 2d       	mov	r18, r3
    165c:	2f 7e       	andi	r18, 0xEF	; 239
    165e:	b2 2e       	mov	r11, r18
    1660:	2a e0       	ldi	r18, 0x0A	; 10
    1662:	30 e0       	ldi	r19, 0x00	; 0
    1664:	25 c0       	rjmp	.+74     	; 0x16b0 <vfprintf+0x26e>
    1666:	93 2d       	mov	r25, r3
    1668:	99 7f       	andi	r25, 0xF9	; 249
    166a:	b9 2e       	mov	r11, r25
    166c:	8f 36       	cpi	r24, 0x6F	; 111
    166e:	c1 f0       	breq	.+48     	; 0x16a0 <vfprintf+0x25e>
    1670:	18 f4       	brcc	.+6      	; 0x1678 <vfprintf+0x236>
    1672:	88 35       	cpi	r24, 0x58	; 88
    1674:	79 f0       	breq	.+30     	; 0x1694 <vfprintf+0x252>
    1676:	ae c0       	rjmp	.+348    	; 0x17d4 <vfprintf+0x392>
    1678:	80 37       	cpi	r24, 0x70	; 112
    167a:	19 f0       	breq	.+6      	; 0x1682 <vfprintf+0x240>
    167c:	88 37       	cpi	r24, 0x78	; 120
    167e:	21 f0       	breq	.+8      	; 0x1688 <vfprintf+0x246>
    1680:	a9 c0       	rjmp	.+338    	; 0x17d4 <vfprintf+0x392>
    1682:	e9 2f       	mov	r30, r25
    1684:	e0 61       	ori	r30, 0x10	; 16
    1686:	be 2e       	mov	r11, r30
    1688:	b4 fe       	sbrs	r11, 4
    168a:	0d c0       	rjmp	.+26     	; 0x16a6 <vfprintf+0x264>
    168c:	fb 2d       	mov	r31, r11
    168e:	f4 60       	ori	r31, 0x04	; 4
    1690:	bf 2e       	mov	r11, r31
    1692:	09 c0       	rjmp	.+18     	; 0x16a6 <vfprintf+0x264>
    1694:	34 fe       	sbrs	r3, 4
    1696:	0a c0       	rjmp	.+20     	; 0x16ac <vfprintf+0x26a>
    1698:	29 2f       	mov	r18, r25
    169a:	26 60       	ori	r18, 0x06	; 6
    169c:	b2 2e       	mov	r11, r18
    169e:	06 c0       	rjmp	.+12     	; 0x16ac <vfprintf+0x26a>
    16a0:	28 e0       	ldi	r18, 0x08	; 8
    16a2:	30 e0       	ldi	r19, 0x00	; 0
    16a4:	05 c0       	rjmp	.+10     	; 0x16b0 <vfprintf+0x26e>
    16a6:	20 e1       	ldi	r18, 0x10	; 16
    16a8:	30 e0       	ldi	r19, 0x00	; 0
    16aa:	02 c0       	rjmp	.+4      	; 0x16b0 <vfprintf+0x26e>
    16ac:	20 e1       	ldi	r18, 0x10	; 16
    16ae:	32 e0       	ldi	r19, 0x02	; 2
    16b0:	f8 01       	movw	r30, r16
    16b2:	b7 fe       	sbrs	r11, 7
    16b4:	07 c0       	rjmp	.+14     	; 0x16c4 <vfprintf+0x282>
    16b6:	60 81       	ld	r22, Z
    16b8:	71 81       	ldd	r23, Z+1	; 0x01
    16ba:	82 81       	ldd	r24, Z+2	; 0x02
    16bc:	93 81       	ldd	r25, Z+3	; 0x03
    16be:	0c 5f       	subi	r16, 0xFC	; 252
    16c0:	1f 4f       	sbci	r17, 0xFF	; 255
    16c2:	06 c0       	rjmp	.+12     	; 0x16d0 <vfprintf+0x28e>
    16c4:	60 81       	ld	r22, Z
    16c6:	71 81       	ldd	r23, Z+1	; 0x01
    16c8:	80 e0       	ldi	r24, 0x00	; 0
    16ca:	90 e0       	ldi	r25, 0x00	; 0
    16cc:	0e 5f       	subi	r16, 0xFE	; 254
    16ce:	1f 4f       	sbci	r17, 0xFF	; 255
    16d0:	a3 01       	movw	r20, r6
    16d2:	25 d5       	rcall	.+2634   	; 0x211e <__ultoa_invert>
    16d4:	88 2e       	mov	r8, r24
    16d6:	86 18       	sub	r8, r6
    16d8:	fb 2d       	mov	r31, r11
    16da:	ff 77       	andi	r31, 0x7F	; 127
    16dc:	3f 2e       	mov	r3, r31
    16de:	36 fe       	sbrs	r3, 6
    16e0:	0d c0       	rjmp	.+26     	; 0x16fc <vfprintf+0x2ba>
    16e2:	23 2d       	mov	r18, r3
    16e4:	2e 7f       	andi	r18, 0xFE	; 254
    16e6:	a2 2e       	mov	r10, r18
    16e8:	89 14       	cp	r8, r9
    16ea:	58 f4       	brcc	.+22     	; 0x1702 <vfprintf+0x2c0>
    16ec:	34 fe       	sbrs	r3, 4
    16ee:	0b c0       	rjmp	.+22     	; 0x1706 <vfprintf+0x2c4>
    16f0:	32 fc       	sbrc	r3, 2
    16f2:	09 c0       	rjmp	.+18     	; 0x1706 <vfprintf+0x2c4>
    16f4:	83 2d       	mov	r24, r3
    16f6:	8e 7e       	andi	r24, 0xEE	; 238
    16f8:	a8 2e       	mov	r10, r24
    16fa:	05 c0       	rjmp	.+10     	; 0x1706 <vfprintf+0x2c4>
    16fc:	b8 2c       	mov	r11, r8
    16fe:	a3 2c       	mov	r10, r3
    1700:	03 c0       	rjmp	.+6      	; 0x1708 <vfprintf+0x2c6>
    1702:	b8 2c       	mov	r11, r8
    1704:	01 c0       	rjmp	.+2      	; 0x1708 <vfprintf+0x2c6>
    1706:	b9 2c       	mov	r11, r9
    1708:	a4 fe       	sbrs	r10, 4
    170a:	0f c0       	rjmp	.+30     	; 0x172a <vfprintf+0x2e8>
    170c:	fe 01       	movw	r30, r28
    170e:	e8 0d       	add	r30, r8
    1710:	f1 1d       	adc	r31, r1
    1712:	80 81       	ld	r24, Z
    1714:	80 33       	cpi	r24, 0x30	; 48
    1716:	21 f4       	brne	.+8      	; 0x1720 <vfprintf+0x2de>
    1718:	9a 2d       	mov	r25, r10
    171a:	99 7e       	andi	r25, 0xE9	; 233
    171c:	a9 2e       	mov	r10, r25
    171e:	09 c0       	rjmp	.+18     	; 0x1732 <vfprintf+0x2f0>
    1720:	a2 fe       	sbrs	r10, 2
    1722:	06 c0       	rjmp	.+12     	; 0x1730 <vfprintf+0x2ee>
    1724:	b3 94       	inc	r11
    1726:	b3 94       	inc	r11
    1728:	04 c0       	rjmp	.+8      	; 0x1732 <vfprintf+0x2f0>
    172a:	8a 2d       	mov	r24, r10
    172c:	86 78       	andi	r24, 0x86	; 134
    172e:	09 f0       	breq	.+2      	; 0x1732 <vfprintf+0x2f0>
    1730:	b3 94       	inc	r11
    1732:	a3 fc       	sbrc	r10, 3
    1734:	10 c0       	rjmp	.+32     	; 0x1756 <vfprintf+0x314>
    1736:	a0 fe       	sbrs	r10, 0
    1738:	06 c0       	rjmp	.+12     	; 0x1746 <vfprintf+0x304>
    173a:	b2 14       	cp	r11, r2
    173c:	80 f4       	brcc	.+32     	; 0x175e <vfprintf+0x31c>
    173e:	28 0c       	add	r2, r8
    1740:	92 2c       	mov	r9, r2
    1742:	9b 18       	sub	r9, r11
    1744:	0d c0       	rjmp	.+26     	; 0x1760 <vfprintf+0x31e>
    1746:	b2 14       	cp	r11, r2
    1748:	58 f4       	brcc	.+22     	; 0x1760 <vfprintf+0x31e>
    174a:	b6 01       	movw	r22, r12
    174c:	80 e2       	ldi	r24, 0x20	; 32
    174e:	90 e0       	ldi	r25, 0x00	; 0
    1750:	91 d4       	rcall	.+2338   	; 0x2074 <fputc>
    1752:	b3 94       	inc	r11
    1754:	f8 cf       	rjmp	.-16     	; 0x1746 <vfprintf+0x304>
    1756:	b2 14       	cp	r11, r2
    1758:	18 f4       	brcc	.+6      	; 0x1760 <vfprintf+0x31e>
    175a:	2b 18       	sub	r2, r11
    175c:	02 c0       	rjmp	.+4      	; 0x1762 <vfprintf+0x320>
    175e:	98 2c       	mov	r9, r8
    1760:	21 2c       	mov	r2, r1
    1762:	a4 fe       	sbrs	r10, 4
    1764:	0f c0       	rjmp	.+30     	; 0x1784 <vfprintf+0x342>
    1766:	b6 01       	movw	r22, r12
    1768:	80 e3       	ldi	r24, 0x30	; 48
    176a:	90 e0       	ldi	r25, 0x00	; 0
    176c:	83 d4       	rcall	.+2310   	; 0x2074 <fputc>
    176e:	a2 fe       	sbrs	r10, 2
    1770:	16 c0       	rjmp	.+44     	; 0x179e <vfprintf+0x35c>
    1772:	a1 fc       	sbrc	r10, 1
    1774:	03 c0       	rjmp	.+6      	; 0x177c <vfprintf+0x33a>
    1776:	88 e7       	ldi	r24, 0x78	; 120
    1778:	90 e0       	ldi	r25, 0x00	; 0
    177a:	02 c0       	rjmp	.+4      	; 0x1780 <vfprintf+0x33e>
    177c:	88 e5       	ldi	r24, 0x58	; 88
    177e:	90 e0       	ldi	r25, 0x00	; 0
    1780:	b6 01       	movw	r22, r12
    1782:	0c c0       	rjmp	.+24     	; 0x179c <vfprintf+0x35a>
    1784:	8a 2d       	mov	r24, r10
    1786:	86 78       	andi	r24, 0x86	; 134
    1788:	51 f0       	breq	.+20     	; 0x179e <vfprintf+0x35c>
    178a:	a1 fe       	sbrs	r10, 1
    178c:	02 c0       	rjmp	.+4      	; 0x1792 <vfprintf+0x350>
    178e:	8b e2       	ldi	r24, 0x2B	; 43
    1790:	01 c0       	rjmp	.+2      	; 0x1794 <vfprintf+0x352>
    1792:	80 e2       	ldi	r24, 0x20	; 32
    1794:	a7 fc       	sbrc	r10, 7
    1796:	8d e2       	ldi	r24, 0x2D	; 45
    1798:	b6 01       	movw	r22, r12
    179a:	90 e0       	ldi	r25, 0x00	; 0
    179c:	6b d4       	rcall	.+2262   	; 0x2074 <fputc>
    179e:	89 14       	cp	r8, r9
    17a0:	30 f4       	brcc	.+12     	; 0x17ae <vfprintf+0x36c>
    17a2:	b6 01       	movw	r22, r12
    17a4:	80 e3       	ldi	r24, 0x30	; 48
    17a6:	90 e0       	ldi	r25, 0x00	; 0
    17a8:	65 d4       	rcall	.+2250   	; 0x2074 <fputc>
    17aa:	9a 94       	dec	r9
    17ac:	f8 cf       	rjmp	.-16     	; 0x179e <vfprintf+0x35c>
    17ae:	8a 94       	dec	r8
    17b0:	f3 01       	movw	r30, r6
    17b2:	e8 0d       	add	r30, r8
    17b4:	f1 1d       	adc	r31, r1
    17b6:	80 81       	ld	r24, Z
    17b8:	b6 01       	movw	r22, r12
    17ba:	90 e0       	ldi	r25, 0x00	; 0
    17bc:	5b d4       	rcall	.+2230   	; 0x2074 <fputc>
    17be:	81 10       	cpse	r8, r1
    17c0:	f6 cf       	rjmp	.-20     	; 0x17ae <vfprintf+0x36c>
    17c2:	22 20       	and	r2, r2
    17c4:	09 f4       	brne	.+2      	; 0x17c8 <vfprintf+0x386>
    17c6:	4e ce       	rjmp	.-868    	; 0x1464 <vfprintf+0x22>
    17c8:	b6 01       	movw	r22, r12
    17ca:	80 e2       	ldi	r24, 0x20	; 32
    17cc:	90 e0       	ldi	r25, 0x00	; 0
    17ce:	52 d4       	rcall	.+2212   	; 0x2074 <fputc>
    17d0:	2a 94       	dec	r2
    17d2:	f7 cf       	rjmp	.-18     	; 0x17c2 <vfprintf+0x380>
    17d4:	f6 01       	movw	r30, r12
    17d6:	86 81       	ldd	r24, Z+6	; 0x06
    17d8:	97 81       	ldd	r25, Z+7	; 0x07
    17da:	02 c0       	rjmp	.+4      	; 0x17e0 <vfprintf+0x39e>
    17dc:	8f ef       	ldi	r24, 0xFF	; 255
    17de:	9f ef       	ldi	r25, 0xFF	; 255
    17e0:	2b 96       	adiw	r28, 0x0b	; 11
    17e2:	e2 e1       	ldi	r30, 0x12	; 18
    17e4:	19 c5       	rjmp	.+2610   	; 0x2218 <__epilogue_restores__>

000017e6 <putval>:
    17e6:	20 fd       	sbrc	r18, 0
    17e8:	09 c0       	rjmp	.+18     	; 0x17fc <putval+0x16>
    17ea:	fc 01       	movw	r30, r24
    17ec:	23 fd       	sbrc	r18, 3
    17ee:	05 c0       	rjmp	.+10     	; 0x17fa <putval+0x14>
    17f0:	22 ff       	sbrs	r18, 2
    17f2:	02 c0       	rjmp	.+4      	; 0x17f8 <putval+0x12>
    17f4:	73 83       	std	Z+3, r23	; 0x03
    17f6:	62 83       	std	Z+2, r22	; 0x02
    17f8:	51 83       	std	Z+1, r21	; 0x01
    17fa:	40 83       	st	Z, r20
    17fc:	08 95       	ret

000017fe <mulacc>:
    17fe:	44 fd       	sbrc	r20, 4
    1800:	17 c0       	rjmp	.+46     	; 0x1830 <mulacc+0x32>
    1802:	46 fd       	sbrc	r20, 6
    1804:	17 c0       	rjmp	.+46     	; 0x1834 <mulacc+0x36>
    1806:	ab 01       	movw	r20, r22
    1808:	bc 01       	movw	r22, r24
    180a:	da 01       	movw	r26, r20
    180c:	fb 01       	movw	r30, r22
    180e:	aa 0f       	add	r26, r26
    1810:	bb 1f       	adc	r27, r27
    1812:	ee 1f       	adc	r30, r30
    1814:	ff 1f       	adc	r31, r31
    1816:	10 94       	com	r1
    1818:	d1 f7       	brne	.-12     	; 0x180e <mulacc+0x10>
    181a:	4a 0f       	add	r20, r26
    181c:	5b 1f       	adc	r21, r27
    181e:	6e 1f       	adc	r22, r30
    1820:	7f 1f       	adc	r23, r31
    1822:	cb 01       	movw	r24, r22
    1824:	ba 01       	movw	r22, r20
    1826:	66 0f       	add	r22, r22
    1828:	77 1f       	adc	r23, r23
    182a:	88 1f       	adc	r24, r24
    182c:	99 1f       	adc	r25, r25
    182e:	09 c0       	rjmp	.+18     	; 0x1842 <mulacc+0x44>
    1830:	33 e0       	ldi	r19, 0x03	; 3
    1832:	01 c0       	rjmp	.+2      	; 0x1836 <mulacc+0x38>
    1834:	34 e0       	ldi	r19, 0x04	; 4
    1836:	66 0f       	add	r22, r22
    1838:	77 1f       	adc	r23, r23
    183a:	88 1f       	adc	r24, r24
    183c:	99 1f       	adc	r25, r25
    183e:	31 50       	subi	r19, 0x01	; 1
    1840:	d1 f7       	brne	.-12     	; 0x1836 <mulacc+0x38>
    1842:	62 0f       	add	r22, r18
    1844:	71 1d       	adc	r23, r1
    1846:	81 1d       	adc	r24, r1
    1848:	91 1d       	adc	r25, r1
    184a:	08 95       	ret

0000184c <skip_spaces>:
    184c:	0f 93       	push	r16
    184e:	1f 93       	push	r17
    1850:	cf 93       	push	r28
    1852:	df 93       	push	r29
    1854:	8c 01       	movw	r16, r24
    1856:	c8 01       	movw	r24, r16
    1858:	cf d3       	rcall	.+1950   	; 0x1ff8 <fgetc>
    185a:	ec 01       	movw	r28, r24
    185c:	97 fd       	sbrc	r25, 7
    185e:	06 c0       	rjmp	.+12     	; 0x186c <skip_spaces+0x20>
    1860:	8b d3       	rcall	.+1814   	; 0x1f78 <isspace>
    1862:	89 2b       	or	r24, r25
    1864:	c1 f7       	brne	.-16     	; 0x1856 <skip_spaces+0xa>
    1866:	b8 01       	movw	r22, r16
    1868:	ce 01       	movw	r24, r28
    186a:	40 d4       	rcall	.+2176   	; 0x20ec <ungetc>
    186c:	ce 01       	movw	r24, r28
    186e:	df 91       	pop	r29
    1870:	cf 91       	pop	r28
    1872:	1f 91       	pop	r17
    1874:	0f 91       	pop	r16
    1876:	08 95       	ret

00001878 <conv_int>:
    1878:	8f 92       	push	r8
    187a:	9f 92       	push	r9
    187c:	af 92       	push	r10
    187e:	bf 92       	push	r11
    1880:	ef 92       	push	r14
    1882:	ff 92       	push	r15
    1884:	0f 93       	push	r16
    1886:	1f 93       	push	r17
    1888:	cf 93       	push	r28
    188a:	df 93       	push	r29
    188c:	8c 01       	movw	r16, r24
    188e:	d6 2f       	mov	r29, r22
    1890:	7a 01       	movw	r14, r20
    1892:	b2 2e       	mov	r11, r18
    1894:	b1 d3       	rcall	.+1890   	; 0x1ff8 <fgetc>
    1896:	9c 01       	movw	r18, r24
    1898:	33 27       	eor	r19, r19
    189a:	2b 32       	cpi	r18, 0x2B	; 43
    189c:	31 05       	cpc	r19, r1
    189e:	31 f0       	breq	.+12     	; 0x18ac <conv_int+0x34>
    18a0:	2d 32       	cpi	r18, 0x2D	; 45
    18a2:	31 05       	cpc	r19, r1
    18a4:	59 f4       	brne	.+22     	; 0x18bc <conv_int+0x44>
    18a6:	8b 2d       	mov	r24, r11
    18a8:	80 68       	ori	r24, 0x80	; 128
    18aa:	b8 2e       	mov	r11, r24
    18ac:	d1 50       	subi	r29, 0x01	; 1
    18ae:	11 f4       	brne	.+4      	; 0x18b4 <conv_int+0x3c>
    18b0:	80 e0       	ldi	r24, 0x00	; 0
    18b2:	61 c0       	rjmp	.+194    	; 0x1976 <conv_int+0xfe>
    18b4:	c8 01       	movw	r24, r16
    18b6:	a0 d3       	rcall	.+1856   	; 0x1ff8 <fgetc>
    18b8:	97 fd       	sbrc	r25, 7
    18ba:	fa cf       	rjmp	.-12     	; 0x18b0 <conv_int+0x38>
    18bc:	cb 2d       	mov	r28, r11
    18be:	cd 7f       	andi	r28, 0xFD	; 253
    18c0:	2b 2d       	mov	r18, r11
    18c2:	20 73       	andi	r18, 0x30	; 48
    18c4:	f9 f4       	brne	.+62     	; 0x1904 <conv_int+0x8c>
    18c6:	80 33       	cpi	r24, 0x30	; 48
    18c8:	e9 f4       	brne	.+58     	; 0x1904 <conv_int+0x8c>
    18ca:	aa 24       	eor	r10, r10
    18cc:	aa 94       	dec	r10
    18ce:	ad 0e       	add	r10, r29
    18d0:	09 f4       	brne	.+2      	; 0x18d4 <conv_int+0x5c>
    18d2:	3e c0       	rjmp	.+124    	; 0x1950 <conv_int+0xd8>
    18d4:	c8 01       	movw	r24, r16
    18d6:	90 d3       	rcall	.+1824   	; 0x1ff8 <fgetc>
    18d8:	97 fd       	sbrc	r25, 7
    18da:	3a c0       	rjmp	.+116    	; 0x1950 <conv_int+0xd8>
    18dc:	9c 01       	movw	r18, r24
    18de:	2f 7d       	andi	r18, 0xDF	; 223
    18e0:	33 27       	eor	r19, r19
    18e2:	28 35       	cpi	r18, 0x58	; 88
    18e4:	31 05       	cpc	r19, r1
    18e6:	41 f4       	brne	.+16     	; 0x18f8 <conv_int+0x80>
    18e8:	c2 64       	ori	r28, 0x42	; 66
    18ea:	d2 50       	subi	r29, 0x02	; 2
    18ec:	89 f1       	breq	.+98     	; 0x1950 <conv_int+0xd8>
    18ee:	c8 01       	movw	r24, r16
    18f0:	83 d3       	rcall	.+1798   	; 0x1ff8 <fgetc>
    18f2:	97 ff       	sbrs	r25, 7
    18f4:	07 c0       	rjmp	.+14     	; 0x1904 <conv_int+0x8c>
    18f6:	2c c0       	rjmp	.+88     	; 0x1950 <conv_int+0xd8>
    18f8:	b6 fe       	sbrs	r11, 6
    18fa:	02 c0       	rjmp	.+4      	; 0x1900 <conv_int+0x88>
    18fc:	c2 60       	ori	r28, 0x02	; 2
    18fe:	01 c0       	rjmp	.+2      	; 0x1902 <conv_int+0x8a>
    1900:	c2 61       	ori	r28, 0x12	; 18
    1902:	da 2d       	mov	r29, r10
    1904:	81 2c       	mov	r8, r1
    1906:	91 2c       	mov	r9, r1
    1908:	54 01       	movw	r10, r8
    190a:	20 ed       	ldi	r18, 0xD0	; 208
    190c:	28 0f       	add	r18, r24
    190e:	28 30       	cpi	r18, 0x08	; 8
    1910:	78 f0       	brcs	.+30     	; 0x1930 <conv_int+0xb8>
    1912:	c4 ff       	sbrs	r28, 4
    1914:	03 c0       	rjmp	.+6      	; 0x191c <conv_int+0xa4>
    1916:	b8 01       	movw	r22, r16
    1918:	e9 d3       	rcall	.+2002   	; 0x20ec <ungetc>
    191a:	17 c0       	rjmp	.+46     	; 0x194a <conv_int+0xd2>
    191c:	2a 30       	cpi	r18, 0x0A	; 10
    191e:	40 f0       	brcs	.+16     	; 0x1930 <conv_int+0xb8>
    1920:	c6 ff       	sbrs	r28, 6
    1922:	f9 cf       	rjmp	.-14     	; 0x1916 <conv_int+0x9e>
    1924:	2f 7d       	andi	r18, 0xDF	; 223
    1926:	3f ee       	ldi	r19, 0xEF	; 239
    1928:	32 0f       	add	r19, r18
    192a:	36 30       	cpi	r19, 0x06	; 6
    192c:	a0 f7       	brcc	.-24     	; 0x1916 <conv_int+0x9e>
    192e:	27 50       	subi	r18, 0x07	; 7
    1930:	4c 2f       	mov	r20, r28
    1932:	c5 01       	movw	r24, r10
    1934:	b4 01       	movw	r22, r8
    1936:	63 df       	rcall	.-314    	; 0x17fe <mulacc>
    1938:	4b 01       	movw	r8, r22
    193a:	5c 01       	movw	r10, r24
    193c:	c2 60       	ori	r28, 0x02	; 2
    193e:	d1 50       	subi	r29, 0x01	; 1
    1940:	51 f0       	breq	.+20     	; 0x1956 <conv_int+0xde>
    1942:	c8 01       	movw	r24, r16
    1944:	59 d3       	rcall	.+1714   	; 0x1ff8 <fgetc>
    1946:	97 ff       	sbrs	r25, 7
    1948:	e0 cf       	rjmp	.-64     	; 0x190a <conv_int+0x92>
    194a:	c1 fd       	sbrc	r28, 1
    194c:	04 c0       	rjmp	.+8      	; 0x1956 <conv_int+0xde>
    194e:	b0 cf       	rjmp	.-160    	; 0x18b0 <conv_int+0x38>
    1950:	81 2c       	mov	r8, r1
    1952:	91 2c       	mov	r9, r1
    1954:	54 01       	movw	r10, r8
    1956:	c7 ff       	sbrs	r28, 7
    1958:	08 c0       	rjmp	.+16     	; 0x196a <conv_int+0xf2>
    195a:	b0 94       	com	r11
    195c:	a0 94       	com	r10
    195e:	90 94       	com	r9
    1960:	80 94       	com	r8
    1962:	81 1c       	adc	r8, r1
    1964:	91 1c       	adc	r9, r1
    1966:	a1 1c       	adc	r10, r1
    1968:	b1 1c       	adc	r11, r1
    196a:	2c 2f       	mov	r18, r28
    196c:	b5 01       	movw	r22, r10
    196e:	a4 01       	movw	r20, r8
    1970:	c7 01       	movw	r24, r14
    1972:	39 df       	rcall	.-398    	; 0x17e6 <putval>
    1974:	81 e0       	ldi	r24, 0x01	; 1
    1976:	df 91       	pop	r29
    1978:	cf 91       	pop	r28
    197a:	1f 91       	pop	r17
    197c:	0f 91       	pop	r16
    197e:	ff 90       	pop	r15
    1980:	ef 90       	pop	r14
    1982:	bf 90       	pop	r11
    1984:	af 90       	pop	r10
    1986:	9f 90       	pop	r9
    1988:	8f 90       	pop	r8
    198a:	08 95       	ret

0000198c <conv_brk>:
    198c:	a0 e2       	ldi	r26, 0x20	; 32
    198e:	b0 e0       	ldi	r27, 0x00	; 0
    1990:	eb ec       	ldi	r30, 0xCB	; 203
    1992:	fc e0       	ldi	r31, 0x0C	; 12
    1994:	28 c4       	rjmp	.+2128   	; 0x21e6 <__prologue_saves__+0x6>
    1996:	5c 01       	movw	r10, r24
    1998:	96 2e       	mov	r9, r22
    199a:	7a 01       	movw	r14, r20
    199c:	f9 01       	movw	r30, r18
    199e:	8e 01       	movw	r16, r28
    19a0:	0f 5f       	subi	r16, 0xFF	; 255
    19a2:	1f 4f       	sbci	r17, 0xFF	; 255
    19a4:	68 01       	movw	r12, r16
    19a6:	80 e2       	ldi	r24, 0x20	; 32
    19a8:	d8 01       	movw	r26, r16
    19aa:	1d 92       	st	X+, r1
    19ac:	8a 95       	dec	r24
    19ae:	e9 f7       	brne	.-6      	; 0x19aa <conv_brk+0x1e>
    19b0:	d5 01       	movw	r26, r10
    19b2:	13 96       	adiw	r26, 0x03	; 3
    19b4:	8c 90       	ld	r8, X
    19b6:	80 e0       	ldi	r24, 0x00	; 0
    19b8:	90 e0       	ldi	r25, 0x00	; 0
    19ba:	61 2c       	mov	r6, r1
    19bc:	71 2c       	mov	r7, r1
    19be:	30 e0       	ldi	r19, 0x00	; 0
    19c0:	61 e0       	ldi	r22, 0x01	; 1
    19c2:	70 e0       	ldi	r23, 0x00	; 0
    19c4:	83 fc       	sbrc	r8, 3
    19c6:	25 91       	lpm	r18, Z+
    19c8:	83 fe       	sbrs	r8, 3
    19ca:	21 91       	ld	r18, Z+
    19cc:	8f 01       	movw	r16, r30
    19ce:	52 2e       	mov	r5, r18
    19d0:	21 11       	cpse	r18, r1
    19d2:	03 c0       	rjmp	.+6      	; 0x19da <conv_brk+0x4e>
    19d4:	80 e0       	ldi	r24, 0x00	; 0
    19d6:	90 e0       	ldi	r25, 0x00	; 0
    19d8:	90 c0       	rjmp	.+288    	; 0x1afa <conv_brk+0x16e>
    19da:	2e 35       	cpi	r18, 0x5E	; 94
    19dc:	11 f4       	brne	.+4      	; 0x19e2 <conv_brk+0x56>
    19de:	00 97       	sbiw	r24, 0x00	; 0
    19e0:	51 f1       	breq	.+84     	; 0x1a36 <conv_brk+0xaa>
    19e2:	43 2f       	mov	r20, r19
    19e4:	50 e0       	ldi	r21, 0x00	; 0
    19e6:	48 17       	cp	r20, r24
    19e8:	59 07       	cpc	r21, r25
    19ea:	3c f4       	brge	.+14     	; 0x19fa <conv_brk+0x6e>
    19ec:	2d 35       	cpi	r18, 0x5D	; 93
    19ee:	59 f1       	breq	.+86     	; 0x1a46 <conv_brk+0xba>
    19f0:	2d 32       	cpi	r18, 0x2D	; 45
    19f2:	19 f4       	brne	.+6      	; 0x19fa <conv_brk+0x6e>
    19f4:	77 20       	and	r7, r7
    19f6:	09 f1       	breq	.+66     	; 0x1a3a <conv_brk+0xae>
    19f8:	03 c0       	rjmp	.+6      	; 0x1a00 <conv_brk+0x74>
    19fa:	77 20       	and	r7, r7
    19fc:	09 f4       	brne	.+2      	; 0x1a00 <conv_brk+0x74>
    19fe:	68 c0       	rjmp	.+208    	; 0x1ad0 <conv_brk+0x144>
    1a00:	45 2d       	mov	r20, r5
    1a02:	46 95       	lsr	r20
    1a04:	46 95       	lsr	r20
    1a06:	46 95       	lsr	r20
    1a08:	d6 01       	movw	r26, r12
    1a0a:	a4 0f       	add	r26, r20
    1a0c:	b1 1d       	adc	r27, r1
    1a0e:	45 2d       	mov	r20, r5
    1a10:	47 70       	andi	r20, 0x07	; 7
    1a12:	8b 01       	movw	r16, r22
    1a14:	02 c0       	rjmp	.+4      	; 0x1a1a <conv_brk+0x8e>
    1a16:	00 0f       	add	r16, r16
    1a18:	11 1f       	adc	r17, r17
    1a1a:	4a 95       	dec	r20
    1a1c:	e2 f7       	brpl	.-8      	; 0x1a16 <conv_brk+0x8a>
    1a1e:	a8 01       	movw	r20, r16
    1a20:	5c 91       	ld	r21, X
    1a22:	45 2b       	or	r20, r21
    1a24:	4c 93       	st	X, r20
    1a26:	65 14       	cp	r6, r5
    1a28:	59 f0       	breq	.+22     	; 0x1a40 <conv_brk+0xb4>
    1a2a:	56 14       	cp	r5, r6
    1a2c:	10 f4       	brcc	.+4      	; 0x1a32 <conv_brk+0xa6>
    1a2e:	53 94       	inc	r5
    1a30:	e7 cf       	rjmp	.-50     	; 0x1a00 <conv_brk+0x74>
    1a32:	5a 94       	dec	r5
    1a34:	e5 cf       	rjmp	.-54     	; 0x1a00 <conv_brk+0x74>
    1a36:	31 e0       	ldi	r19, 0x01	; 1
    1a38:	04 c0       	rjmp	.+8      	; 0x1a42 <conv_brk+0xb6>
    1a3a:	77 24       	eor	r7, r7
    1a3c:	73 94       	inc	r7
    1a3e:	01 c0       	rjmp	.+2      	; 0x1a42 <conv_brk+0xb6>
    1a40:	71 2c       	mov	r7, r1
    1a42:	01 96       	adiw	r24, 0x01	; 1
    1a44:	bf cf       	rjmp	.-130    	; 0x19c4 <conv_brk+0x38>
    1a46:	77 20       	and	r7, r7
    1a48:	19 f0       	breq	.+6      	; 0x1a50 <conv_brk+0xc4>
    1a4a:	8e 81       	ldd	r24, Y+6	; 0x06
    1a4c:	80 62       	ori	r24, 0x20	; 32
    1a4e:	8e 83       	std	Y+6, r24	; 0x06
    1a50:	31 11       	cpse	r19, r1
    1a52:	03 c0       	rjmp	.+6      	; 0x1a5a <conv_brk+0xce>
    1a54:	88 24       	eor	r8, r8
    1a56:	83 94       	inc	r8
    1a58:	17 c0       	rjmp	.+46     	; 0x1a88 <conv_brk+0xfc>
    1a5a:	f6 01       	movw	r30, r12
    1a5c:	9e 01       	movw	r18, r28
    1a5e:	2f 5d       	subi	r18, 0xDF	; 223
    1a60:	3f 4f       	sbci	r19, 0xFF	; 255
    1a62:	80 81       	ld	r24, Z
    1a64:	80 95       	com	r24
    1a66:	81 93       	st	Z+, r24
    1a68:	2e 17       	cp	r18, r30
    1a6a:	3f 07       	cpc	r19, r31
    1a6c:	d1 f7       	brne	.-12     	; 0x1a62 <conv_brk+0xd6>
    1a6e:	f2 cf       	rjmp	.-28     	; 0x1a54 <conv_brk+0xc8>
    1a70:	e1 14       	cp	r14, r1
    1a72:	f1 04       	cpc	r15, r1
    1a74:	29 f0       	breq	.+10     	; 0x1a80 <conv_brk+0xf4>
    1a76:	d7 01       	movw	r26, r14
    1a78:	8c 93       	st	X, r24
    1a7a:	f7 01       	movw	r30, r14
    1a7c:	31 96       	adiw	r30, 0x01	; 1
    1a7e:	7f 01       	movw	r14, r30
    1a80:	9a 94       	dec	r9
    1a82:	81 2c       	mov	r8, r1
    1a84:	99 20       	and	r9, r9
    1a86:	e9 f0       	breq	.+58     	; 0x1ac2 <conv_brk+0x136>
    1a88:	c5 01       	movw	r24, r10
    1a8a:	b6 d2       	rcall	.+1388   	; 0x1ff8 <fgetc>
    1a8c:	97 fd       	sbrc	r25, 7
    1a8e:	17 c0       	rjmp	.+46     	; 0x1abe <conv_brk+0x132>
    1a90:	fc 01       	movw	r30, r24
    1a92:	ff 27       	eor	r31, r31
    1a94:	23 e0       	ldi	r18, 0x03	; 3
    1a96:	f5 95       	asr	r31
    1a98:	e7 95       	ror	r30
    1a9a:	2a 95       	dec	r18
    1a9c:	e1 f7       	brne	.-8      	; 0x1a96 <conv_brk+0x10a>
    1a9e:	ec 0d       	add	r30, r12
    1aa0:	fd 1d       	adc	r31, r13
    1aa2:	20 81       	ld	r18, Z
    1aa4:	30 e0       	ldi	r19, 0x00	; 0
    1aa6:	ac 01       	movw	r20, r24
    1aa8:	47 70       	andi	r20, 0x07	; 7
    1aaa:	55 27       	eor	r21, r21
    1aac:	02 c0       	rjmp	.+4      	; 0x1ab2 <conv_brk+0x126>
    1aae:	35 95       	asr	r19
    1ab0:	27 95       	ror	r18
    1ab2:	4a 95       	dec	r20
    1ab4:	e2 f7       	brpl	.-8      	; 0x1aae <conv_brk+0x122>
    1ab6:	20 fd       	sbrc	r18, 0
    1ab8:	db cf       	rjmp	.-74     	; 0x1a70 <conv_brk+0xe4>
    1aba:	b5 01       	movw	r22, r10
    1abc:	17 d3       	rcall	.+1582   	; 0x20ec <ungetc>
    1abe:	81 10       	cpse	r8, r1
    1ac0:	89 cf       	rjmp	.-238    	; 0x19d4 <conv_brk+0x48>
    1ac2:	e1 14       	cp	r14, r1
    1ac4:	f1 04       	cpc	r15, r1
    1ac6:	11 f0       	breq	.+4      	; 0x1acc <conv_brk+0x140>
    1ac8:	d7 01       	movw	r26, r14
    1aca:	1c 92       	st	X, r1
    1acc:	c8 01       	movw	r24, r16
    1ace:	15 c0       	rjmp	.+42     	; 0x1afa <conv_brk+0x16e>
    1ad0:	42 2f       	mov	r20, r18
    1ad2:	46 95       	lsr	r20
    1ad4:	46 95       	lsr	r20
    1ad6:	46 95       	lsr	r20
    1ad8:	d6 01       	movw	r26, r12
    1ada:	a4 0f       	add	r26, r20
    1adc:	b1 1d       	adc	r27, r1
    1ade:	42 2f       	mov	r20, r18
    1ae0:	47 70       	andi	r20, 0x07	; 7
    1ae2:	8b 01       	movw	r16, r22
    1ae4:	02 c0       	rjmp	.+4      	; 0x1aea <conv_brk+0x15e>
    1ae6:	00 0f       	add	r16, r16
    1ae8:	11 1f       	adc	r17, r17
    1aea:	4a 95       	dec	r20
    1aec:	e2 f7       	brpl	.-8      	; 0x1ae6 <conv_brk+0x15a>
    1aee:	a8 01       	movw	r20, r16
    1af0:	5c 91       	ld	r21, X
    1af2:	45 2b       	or	r20, r21
    1af4:	4c 93       	st	X, r20
    1af6:	62 2e       	mov	r6, r18
    1af8:	a4 cf       	rjmp	.-184    	; 0x1a42 <conv_brk+0xb6>
    1afa:	a0 96       	adiw	r28, 0x20	; 32
    1afc:	ef e0       	ldi	r30, 0x0F	; 15
    1afe:	8f c3       	rjmp	.+1822   	; 0x221e <__epilogue_restores__+0x6>

00001b00 <vfscanf>:
    1b00:	a0 e0       	ldi	r26, 0x00	; 0
    1b02:	b0 e0       	ldi	r27, 0x00	; 0
    1b04:	e5 e8       	ldi	r30, 0x85	; 133
    1b06:	fd e0       	ldi	r31, 0x0D	; 13
    1b08:	6e c3       	rjmp	.+1756   	; 0x21e6 <__prologue_saves__+0x6>
    1b0a:	6c 01       	movw	r12, r24
    1b0c:	eb 01       	movw	r28, r22
    1b0e:	5a 01       	movw	r10, r20
    1b10:	fc 01       	movw	r30, r24
    1b12:	17 82       	std	Z+7, r1	; 0x07
    1b14:	16 82       	std	Z+6, r1	; 0x06
    1b16:	51 2c       	mov	r5, r1
    1b18:	f6 01       	movw	r30, r12
    1b1a:	e3 80       	ldd	r14, Z+3	; 0x03
    1b1c:	fe 01       	movw	r30, r28
    1b1e:	e3 fc       	sbrc	r14, 3
    1b20:	85 91       	lpm	r24, Z+
    1b22:	e3 fe       	sbrs	r14, 3
    1b24:	81 91       	ld	r24, Z+
    1b26:	18 2f       	mov	r17, r24
    1b28:	ef 01       	movw	r28, r30
    1b2a:	88 23       	and	r24, r24
    1b2c:	09 f4       	brne	.+2      	; 0x1b30 <vfscanf+0x30>
    1b2e:	e0 c0       	rjmp	.+448    	; 0x1cf0 <vfscanf+0x1f0>
    1b30:	90 e0       	ldi	r25, 0x00	; 0
    1b32:	22 d2       	rcall	.+1092   	; 0x1f78 <isspace>
    1b34:	89 2b       	or	r24, r25
    1b36:	19 f0       	breq	.+6      	; 0x1b3e <vfscanf+0x3e>
    1b38:	c6 01       	movw	r24, r12
    1b3a:	88 de       	rcall	.-752    	; 0x184c <skip_spaces>
    1b3c:	ed cf       	rjmp	.-38     	; 0x1b18 <vfscanf+0x18>
    1b3e:	15 32       	cpi	r17, 0x25	; 37
    1b40:	41 f4       	brne	.+16     	; 0x1b52 <vfscanf+0x52>
    1b42:	fe 01       	movw	r30, r28
    1b44:	e3 fc       	sbrc	r14, 3
    1b46:	15 91       	lpm	r17, Z+
    1b48:	e3 fe       	sbrs	r14, 3
    1b4a:	11 91       	ld	r17, Z+
    1b4c:	ef 01       	movw	r28, r30
    1b4e:	15 32       	cpi	r17, 0x25	; 37
    1b50:	71 f4       	brne	.+28     	; 0x1b6e <vfscanf+0x6e>
    1b52:	c6 01       	movw	r24, r12
    1b54:	51 d2       	rcall	.+1186   	; 0x1ff8 <fgetc>
    1b56:	97 fd       	sbrc	r25, 7
    1b58:	c9 c0       	rjmp	.+402    	; 0x1cec <vfscanf+0x1ec>
    1b5a:	41 2f       	mov	r20, r17
    1b5c:	50 e0       	ldi	r21, 0x00	; 0
    1b5e:	9c 01       	movw	r18, r24
    1b60:	33 27       	eor	r19, r19
    1b62:	24 17       	cp	r18, r20
    1b64:	35 07       	cpc	r19, r21
    1b66:	c1 f2       	breq	.-80     	; 0x1b18 <vfscanf+0x18>
    1b68:	b6 01       	movw	r22, r12
    1b6a:	c0 d2       	rcall	.+1408   	; 0x20ec <ungetc>
    1b6c:	c1 c0       	rjmp	.+386    	; 0x1cf0 <vfscanf+0x1f0>
    1b6e:	1a 32       	cpi	r17, 0x2A	; 42
    1b70:	39 f4       	brne	.+14     	; 0x1b80 <vfscanf+0x80>
    1b72:	e3 fc       	sbrc	r14, 3
    1b74:	15 91       	lpm	r17, Z+
    1b76:	e3 fe       	sbrs	r14, 3
    1b78:	11 91       	ld	r17, Z+
    1b7a:	ef 01       	movw	r28, r30
    1b7c:	01 e0       	ldi	r16, 0x01	; 1
    1b7e:	01 c0       	rjmp	.+2      	; 0x1b82 <vfscanf+0x82>
    1b80:	00 e0       	ldi	r16, 0x00	; 0
    1b82:	f1 2c       	mov	r15, r1
    1b84:	20 ed       	ldi	r18, 0xD0	; 208
    1b86:	21 0f       	add	r18, r17
    1b88:	2a 30       	cpi	r18, 0x0A	; 10
    1b8a:	78 f4       	brcc	.+30     	; 0x1baa <vfscanf+0xaa>
    1b8c:	02 60       	ori	r16, 0x02	; 2
    1b8e:	6f 2d       	mov	r22, r15
    1b90:	70 e0       	ldi	r23, 0x00	; 0
    1b92:	80 e0       	ldi	r24, 0x00	; 0
    1b94:	90 e0       	ldi	r25, 0x00	; 0
    1b96:	40 e2       	ldi	r20, 0x20	; 32
    1b98:	32 de       	rcall	.-924    	; 0x17fe <mulacc>
    1b9a:	f6 2e       	mov	r15, r22
    1b9c:	fe 01       	movw	r30, r28
    1b9e:	e3 fc       	sbrc	r14, 3
    1ba0:	15 91       	lpm	r17, Z+
    1ba2:	e3 fe       	sbrs	r14, 3
    1ba4:	11 91       	ld	r17, Z+
    1ba6:	ef 01       	movw	r28, r30
    1ba8:	ed cf       	rjmp	.-38     	; 0x1b84 <vfscanf+0x84>
    1baa:	01 ff       	sbrs	r16, 1
    1bac:	03 c0       	rjmp	.+6      	; 0x1bb4 <vfscanf+0xb4>
    1bae:	f1 10       	cpse	r15, r1
    1bb0:	03 c0       	rjmp	.+6      	; 0x1bb8 <vfscanf+0xb8>
    1bb2:	9e c0       	rjmp	.+316    	; 0x1cf0 <vfscanf+0x1f0>
    1bb4:	ff 24       	eor	r15, r15
    1bb6:	fa 94       	dec	r15
    1bb8:	18 36       	cpi	r17, 0x68	; 104
    1bba:	19 f0       	breq	.+6      	; 0x1bc2 <vfscanf+0xc2>
    1bbc:	1c 36       	cpi	r17, 0x6C	; 108
    1bbe:	51 f0       	breq	.+20     	; 0x1bd4 <vfscanf+0xd4>
    1bc0:	10 c0       	rjmp	.+32     	; 0x1be2 <vfscanf+0xe2>
    1bc2:	fe 01       	movw	r30, r28
    1bc4:	e3 fc       	sbrc	r14, 3
    1bc6:	15 91       	lpm	r17, Z+
    1bc8:	e3 fe       	sbrs	r14, 3
    1bca:	11 91       	ld	r17, Z+
    1bcc:	ef 01       	movw	r28, r30
    1bce:	18 36       	cpi	r17, 0x68	; 104
    1bd0:	41 f4       	brne	.+16     	; 0x1be2 <vfscanf+0xe2>
    1bd2:	08 60       	ori	r16, 0x08	; 8
    1bd4:	04 60       	ori	r16, 0x04	; 4
    1bd6:	fe 01       	movw	r30, r28
    1bd8:	e3 fc       	sbrc	r14, 3
    1bda:	15 91       	lpm	r17, Z+
    1bdc:	e3 fe       	sbrs	r14, 3
    1bde:	11 91       	ld	r17, Z+
    1be0:	ef 01       	movw	r28, r30
    1be2:	11 23       	and	r17, r17
    1be4:	09 f4       	brne	.+2      	; 0x1be8 <vfscanf+0xe8>
    1be6:	84 c0       	rjmp	.+264    	; 0x1cf0 <vfscanf+0x1f0>
    1be8:	61 2f       	mov	r22, r17
    1bea:	70 e0       	ldi	r23, 0x00	; 0
    1bec:	80 e7       	ldi	r24, 0x70	; 112
    1bee:	90 e0       	ldi	r25, 0x00	; 0
    1bf0:	cb d1       	rcall	.+918    	; 0x1f88 <strchr_P>
    1bf2:	89 2b       	or	r24, r25
    1bf4:	09 f4       	brne	.+2      	; 0x1bf8 <vfscanf+0xf8>
    1bf6:	7c c0       	rjmp	.+248    	; 0x1cf0 <vfscanf+0x1f0>
    1bf8:	00 fd       	sbrc	r16, 0
    1bfa:	07 c0       	rjmp	.+14     	; 0x1c0a <vfscanf+0x10a>
    1bfc:	f5 01       	movw	r30, r10
    1bfe:	80 80       	ld	r8, Z
    1c00:	91 80       	ldd	r9, Z+1	; 0x01
    1c02:	c5 01       	movw	r24, r10
    1c04:	02 96       	adiw	r24, 0x02	; 2
    1c06:	5c 01       	movw	r10, r24
    1c08:	02 c0       	rjmp	.+4      	; 0x1c0e <vfscanf+0x10e>
    1c0a:	81 2c       	mov	r8, r1
    1c0c:	91 2c       	mov	r9, r1
    1c0e:	1e 36       	cpi	r17, 0x6E	; 110
    1c10:	49 f4       	brne	.+18     	; 0x1c24 <vfscanf+0x124>
    1c12:	f6 01       	movw	r30, r12
    1c14:	46 81       	ldd	r20, Z+6	; 0x06
    1c16:	57 81       	ldd	r21, Z+7	; 0x07
    1c18:	60 e0       	ldi	r22, 0x00	; 0
    1c1a:	70 e0       	ldi	r23, 0x00	; 0
    1c1c:	20 2f       	mov	r18, r16
    1c1e:	c4 01       	movw	r24, r8
    1c20:	e2 dd       	rcall	.-1084   	; 0x17e6 <putval>
    1c22:	7a cf       	rjmp	.-268    	; 0x1b18 <vfscanf+0x18>
    1c24:	13 36       	cpi	r17, 0x63	; 99
    1c26:	a1 f4       	brne	.+40     	; 0x1c50 <vfscanf+0x150>
    1c28:	01 fd       	sbrc	r16, 1
    1c2a:	02 c0       	rjmp	.+4      	; 0x1c30 <vfscanf+0x130>
    1c2c:	ff 24       	eor	r15, r15
    1c2e:	f3 94       	inc	r15
    1c30:	c6 01       	movw	r24, r12
    1c32:	e2 d1       	rcall	.+964    	; 0x1ff8 <fgetc>
    1c34:	97 fd       	sbrc	r25, 7
    1c36:	5a c0       	rjmp	.+180    	; 0x1cec <vfscanf+0x1ec>
    1c38:	81 14       	cp	r8, r1
    1c3a:	91 04       	cpc	r9, r1
    1c3c:	29 f0       	breq	.+10     	; 0x1c48 <vfscanf+0x148>
    1c3e:	f4 01       	movw	r30, r8
    1c40:	80 83       	st	Z, r24
    1c42:	c4 01       	movw	r24, r8
    1c44:	01 96       	adiw	r24, 0x01	; 1
    1c46:	4c 01       	movw	r8, r24
    1c48:	fa 94       	dec	r15
    1c4a:	f1 10       	cpse	r15, r1
    1c4c:	f1 cf       	rjmp	.-30     	; 0x1c30 <vfscanf+0x130>
    1c4e:	4a c0       	rjmp	.+148    	; 0x1ce4 <vfscanf+0x1e4>
    1c50:	1b 35       	cpi	r17, 0x5B	; 91
    1c52:	51 f4       	brne	.+20     	; 0x1c68 <vfscanf+0x168>
    1c54:	9e 01       	movw	r18, r28
    1c56:	a4 01       	movw	r20, r8
    1c58:	6f 2d       	mov	r22, r15
    1c5a:	c6 01       	movw	r24, r12
    1c5c:	97 de       	rcall	.-722    	; 0x198c <conv_brk>
    1c5e:	ec 01       	movw	r28, r24
    1c60:	89 2b       	or	r24, r25
    1c62:	09 f0       	breq	.+2      	; 0x1c66 <vfscanf+0x166>
    1c64:	3f c0       	rjmp	.+126    	; 0x1ce4 <vfscanf+0x1e4>
    1c66:	39 c0       	rjmp	.+114    	; 0x1cda <vfscanf+0x1da>
    1c68:	c6 01       	movw	r24, r12
    1c6a:	f0 dd       	rcall	.-1056   	; 0x184c <skip_spaces>
    1c6c:	97 fd       	sbrc	r25, 7
    1c6e:	3e c0       	rjmp	.+124    	; 0x1cec <vfscanf+0x1ec>
    1c70:	1f 36       	cpi	r17, 0x6F	; 111
    1c72:	49 f1       	breq	.+82     	; 0x1cc6 <vfscanf+0x1c6>
    1c74:	28 f4       	brcc	.+10     	; 0x1c80 <vfscanf+0x180>
    1c76:	14 36       	cpi	r17, 0x64	; 100
    1c78:	21 f1       	breq	.+72     	; 0x1cc2 <vfscanf+0x1c2>
    1c7a:	19 36       	cpi	r17, 0x69	; 105
    1c7c:	39 f1       	breq	.+78     	; 0x1ccc <vfscanf+0x1cc>
    1c7e:	25 c0       	rjmp	.+74     	; 0x1cca <vfscanf+0x1ca>
    1c80:	13 37       	cpi	r17, 0x73	; 115
    1c82:	71 f0       	breq	.+28     	; 0x1ca0 <vfscanf+0x1a0>
    1c84:	15 37       	cpi	r17, 0x75	; 117
    1c86:	e9 f0       	breq	.+58     	; 0x1cc2 <vfscanf+0x1c2>
    1c88:	20 c0       	rjmp	.+64     	; 0x1cca <vfscanf+0x1ca>
    1c8a:	81 14       	cp	r8, r1
    1c8c:	91 04       	cpc	r9, r1
    1c8e:	29 f0       	breq	.+10     	; 0x1c9a <vfscanf+0x19a>
    1c90:	f4 01       	movw	r30, r8
    1c92:	60 82       	st	Z, r6
    1c94:	c4 01       	movw	r24, r8
    1c96:	01 96       	adiw	r24, 0x01	; 1
    1c98:	4c 01       	movw	r8, r24
    1c9a:	fa 94       	dec	r15
    1c9c:	ff 20       	and	r15, r15
    1c9e:	59 f0       	breq	.+22     	; 0x1cb6 <vfscanf+0x1b6>
    1ca0:	c6 01       	movw	r24, r12
    1ca2:	aa d1       	rcall	.+852    	; 0x1ff8 <fgetc>
    1ca4:	3c 01       	movw	r6, r24
    1ca6:	97 fd       	sbrc	r25, 7
    1ca8:	06 c0       	rjmp	.+12     	; 0x1cb6 <vfscanf+0x1b6>
    1caa:	66 d1       	rcall	.+716    	; 0x1f78 <isspace>
    1cac:	89 2b       	or	r24, r25
    1cae:	69 f3       	breq	.-38     	; 0x1c8a <vfscanf+0x18a>
    1cb0:	b6 01       	movw	r22, r12
    1cb2:	c3 01       	movw	r24, r6
    1cb4:	1b d2       	rcall	.+1078   	; 0x20ec <ungetc>
    1cb6:	81 14       	cp	r8, r1
    1cb8:	91 04       	cpc	r9, r1
    1cba:	a1 f0       	breq	.+40     	; 0x1ce4 <vfscanf+0x1e4>
    1cbc:	f4 01       	movw	r30, r8
    1cbe:	10 82       	st	Z, r1
    1cc0:	11 c0       	rjmp	.+34     	; 0x1ce4 <vfscanf+0x1e4>
    1cc2:	00 62       	ori	r16, 0x20	; 32
    1cc4:	03 c0       	rjmp	.+6      	; 0x1ccc <vfscanf+0x1cc>
    1cc6:	00 61       	ori	r16, 0x10	; 16
    1cc8:	01 c0       	rjmp	.+2      	; 0x1ccc <vfscanf+0x1cc>
    1cca:	00 64       	ori	r16, 0x40	; 64
    1ccc:	20 2f       	mov	r18, r16
    1cce:	a4 01       	movw	r20, r8
    1cd0:	6f 2d       	mov	r22, r15
    1cd2:	c6 01       	movw	r24, r12
    1cd4:	d1 dd       	rcall	.-1118   	; 0x1878 <conv_int>
    1cd6:	81 11       	cpse	r24, r1
    1cd8:	05 c0       	rjmp	.+10     	; 0x1ce4 <vfscanf+0x1e4>
    1cda:	f6 01       	movw	r30, r12
    1cdc:	83 81       	ldd	r24, Z+3	; 0x03
    1cde:	80 73       	andi	r24, 0x30	; 48
    1ce0:	29 f4       	brne	.+10     	; 0x1cec <vfscanf+0x1ec>
    1ce2:	06 c0       	rjmp	.+12     	; 0x1cf0 <vfscanf+0x1f0>
    1ce4:	00 fd       	sbrc	r16, 0
    1ce6:	18 cf       	rjmp	.-464    	; 0x1b18 <vfscanf+0x18>
    1ce8:	53 94       	inc	r5
    1cea:	16 cf       	rjmp	.-468    	; 0x1b18 <vfscanf+0x18>
    1cec:	55 20       	and	r5, r5
    1cee:	19 f0       	breq	.+6      	; 0x1cf6 <vfscanf+0x1f6>
    1cf0:	85 2d       	mov	r24, r5
    1cf2:	90 e0       	ldi	r25, 0x00	; 0
    1cf4:	02 c0       	rjmp	.+4      	; 0x1cfa <vfscanf+0x1fa>
    1cf6:	8f ef       	ldi	r24, 0xFF	; 255
    1cf8:	9f ef       	ldi	r25, 0xFF	; 255
    1cfa:	cd b7       	in	r28, 0x3d	; 61
    1cfc:	de b7       	in	r29, 0x3e	; 62
    1cfe:	ef e0       	ldi	r30, 0x0F	; 15
    1d00:	8e c2       	rjmp	.+1308   	; 0x221e <__epilogue_restores__+0x6>

00001d02 <calloc>:
    1d02:	0f 93       	push	r16
    1d04:	1f 93       	push	r17
    1d06:	cf 93       	push	r28
    1d08:	df 93       	push	r29
    1d0a:	86 9f       	mul	r24, r22
    1d0c:	80 01       	movw	r16, r0
    1d0e:	87 9f       	mul	r24, r23
    1d10:	10 0d       	add	r17, r0
    1d12:	96 9f       	mul	r25, r22
    1d14:	10 0d       	add	r17, r0
    1d16:	11 24       	eor	r1, r1
    1d18:	c8 01       	movw	r24, r16
    1d1a:	0d d0       	rcall	.+26     	; 0x1d36 <malloc>
    1d1c:	ec 01       	movw	r28, r24
    1d1e:	00 97       	sbiw	r24, 0x00	; 0
    1d20:	21 f0       	breq	.+8      	; 0x1d2a <calloc+0x28>
    1d22:	a8 01       	movw	r20, r16
    1d24:	60 e0       	ldi	r22, 0x00	; 0
    1d26:	70 e0       	ldi	r23, 0x00	; 0
    1d28:	45 d1       	rcall	.+650    	; 0x1fb4 <memset>
    1d2a:	ce 01       	movw	r24, r28
    1d2c:	df 91       	pop	r29
    1d2e:	cf 91       	pop	r28
    1d30:	1f 91       	pop	r17
    1d32:	0f 91       	pop	r16
    1d34:	08 95       	ret

00001d36 <malloc>:
    1d36:	0f 93       	push	r16
    1d38:	1f 93       	push	r17
    1d3a:	cf 93       	push	r28
    1d3c:	df 93       	push	r29
    1d3e:	82 30       	cpi	r24, 0x02	; 2
    1d40:	91 05       	cpc	r25, r1
    1d42:	10 f4       	brcc	.+4      	; 0x1d48 <malloc+0x12>
    1d44:	82 e0       	ldi	r24, 0x02	; 2
    1d46:	90 e0       	ldi	r25, 0x00	; 0
    1d48:	e0 91 da 03 	lds	r30, 0x03DA	; 0x8003da <__flp>
    1d4c:	f0 91 db 03 	lds	r31, 0x03DB	; 0x8003db <__flp+0x1>
    1d50:	20 e0       	ldi	r18, 0x00	; 0
    1d52:	30 e0       	ldi	r19, 0x00	; 0
    1d54:	a0 e0       	ldi	r26, 0x00	; 0
    1d56:	b0 e0       	ldi	r27, 0x00	; 0
    1d58:	30 97       	sbiw	r30, 0x00	; 0
    1d5a:	19 f1       	breq	.+70     	; 0x1da2 <malloc+0x6c>
    1d5c:	40 81       	ld	r20, Z
    1d5e:	51 81       	ldd	r21, Z+1	; 0x01
    1d60:	02 81       	ldd	r16, Z+2	; 0x02
    1d62:	13 81       	ldd	r17, Z+3	; 0x03
    1d64:	48 17       	cp	r20, r24
    1d66:	59 07       	cpc	r21, r25
    1d68:	c8 f0       	brcs	.+50     	; 0x1d9c <malloc+0x66>
    1d6a:	84 17       	cp	r24, r20
    1d6c:	95 07       	cpc	r25, r21
    1d6e:	69 f4       	brne	.+26     	; 0x1d8a <malloc+0x54>
    1d70:	10 97       	sbiw	r26, 0x00	; 0
    1d72:	31 f0       	breq	.+12     	; 0x1d80 <malloc+0x4a>
    1d74:	12 96       	adiw	r26, 0x02	; 2
    1d76:	0c 93       	st	X, r16
    1d78:	12 97       	sbiw	r26, 0x02	; 2
    1d7a:	13 96       	adiw	r26, 0x03	; 3
    1d7c:	1c 93       	st	X, r17
    1d7e:	27 c0       	rjmp	.+78     	; 0x1dce <malloc+0x98>
    1d80:	00 93 da 03 	sts	0x03DA, r16	; 0x8003da <__flp>
    1d84:	10 93 db 03 	sts	0x03DB, r17	; 0x8003db <__flp+0x1>
    1d88:	22 c0       	rjmp	.+68     	; 0x1dce <malloc+0x98>
    1d8a:	21 15       	cp	r18, r1
    1d8c:	31 05       	cpc	r19, r1
    1d8e:	19 f0       	breq	.+6      	; 0x1d96 <malloc+0x60>
    1d90:	42 17       	cp	r20, r18
    1d92:	53 07       	cpc	r21, r19
    1d94:	18 f4       	brcc	.+6      	; 0x1d9c <malloc+0x66>
    1d96:	9a 01       	movw	r18, r20
    1d98:	bd 01       	movw	r22, r26
    1d9a:	ef 01       	movw	r28, r30
    1d9c:	df 01       	movw	r26, r30
    1d9e:	f8 01       	movw	r30, r16
    1da0:	db cf       	rjmp	.-74     	; 0x1d58 <malloc+0x22>
    1da2:	21 15       	cp	r18, r1
    1da4:	31 05       	cpc	r19, r1
    1da6:	f9 f0       	breq	.+62     	; 0x1de6 <malloc+0xb0>
    1da8:	28 1b       	sub	r18, r24
    1daa:	39 0b       	sbc	r19, r25
    1dac:	24 30       	cpi	r18, 0x04	; 4
    1dae:	31 05       	cpc	r19, r1
    1db0:	80 f4       	brcc	.+32     	; 0x1dd2 <malloc+0x9c>
    1db2:	8a 81       	ldd	r24, Y+2	; 0x02
    1db4:	9b 81       	ldd	r25, Y+3	; 0x03
    1db6:	61 15       	cp	r22, r1
    1db8:	71 05       	cpc	r23, r1
    1dba:	21 f0       	breq	.+8      	; 0x1dc4 <malloc+0x8e>
    1dbc:	fb 01       	movw	r30, r22
    1dbe:	93 83       	std	Z+3, r25	; 0x03
    1dc0:	82 83       	std	Z+2, r24	; 0x02
    1dc2:	04 c0       	rjmp	.+8      	; 0x1dcc <malloc+0x96>
    1dc4:	90 93 db 03 	sts	0x03DB, r25	; 0x8003db <__flp+0x1>
    1dc8:	80 93 da 03 	sts	0x03DA, r24	; 0x8003da <__flp>
    1dcc:	fe 01       	movw	r30, r28
    1dce:	32 96       	adiw	r30, 0x02	; 2
    1dd0:	44 c0       	rjmp	.+136    	; 0x1e5a <malloc+0x124>
    1dd2:	fe 01       	movw	r30, r28
    1dd4:	e2 0f       	add	r30, r18
    1dd6:	f3 1f       	adc	r31, r19
    1dd8:	81 93       	st	Z+, r24
    1dda:	91 93       	st	Z+, r25
    1ddc:	22 50       	subi	r18, 0x02	; 2
    1dde:	31 09       	sbc	r19, r1
    1de0:	39 83       	std	Y+1, r19	; 0x01
    1de2:	28 83       	st	Y, r18
    1de4:	3a c0       	rjmp	.+116    	; 0x1e5a <malloc+0x124>
    1de6:	20 91 d8 03 	lds	r18, 0x03D8	; 0x8003d8 <__brkval>
    1dea:	30 91 d9 03 	lds	r19, 0x03D9	; 0x8003d9 <__brkval+0x1>
    1dee:	23 2b       	or	r18, r19
    1df0:	41 f4       	brne	.+16     	; 0x1e02 <malloc+0xcc>
    1df2:	20 91 02 01 	lds	r18, 0x0102	; 0x800102 <__malloc_heap_start>
    1df6:	30 91 03 01 	lds	r19, 0x0103	; 0x800103 <__malloc_heap_start+0x1>
    1dfa:	30 93 d9 03 	sts	0x03D9, r19	; 0x8003d9 <__brkval+0x1>
    1dfe:	20 93 d8 03 	sts	0x03D8, r18	; 0x8003d8 <__brkval>
    1e02:	20 91 00 01 	lds	r18, 0x0100	; 0x800100 <__data_start>
    1e06:	30 91 01 01 	lds	r19, 0x0101	; 0x800101 <__data_start+0x1>
    1e0a:	21 15       	cp	r18, r1
    1e0c:	31 05       	cpc	r19, r1
    1e0e:	41 f4       	brne	.+16     	; 0x1e20 <malloc+0xea>
    1e10:	2d b7       	in	r18, 0x3d	; 61
    1e12:	3e b7       	in	r19, 0x3e	; 62
    1e14:	40 91 04 01 	lds	r20, 0x0104	; 0x800104 <__malloc_margin>
    1e18:	50 91 05 01 	lds	r21, 0x0105	; 0x800105 <__malloc_margin+0x1>
    1e1c:	24 1b       	sub	r18, r20
    1e1e:	35 0b       	sbc	r19, r21
    1e20:	e0 91 d8 03 	lds	r30, 0x03D8	; 0x8003d8 <__brkval>
    1e24:	f0 91 d9 03 	lds	r31, 0x03D9	; 0x8003d9 <__brkval+0x1>
    1e28:	e2 17       	cp	r30, r18
    1e2a:	f3 07       	cpc	r31, r19
    1e2c:	a0 f4       	brcc	.+40     	; 0x1e56 <malloc+0x120>
    1e2e:	2e 1b       	sub	r18, r30
    1e30:	3f 0b       	sbc	r19, r31
    1e32:	28 17       	cp	r18, r24
    1e34:	39 07       	cpc	r19, r25
    1e36:	78 f0       	brcs	.+30     	; 0x1e56 <malloc+0x120>
    1e38:	ac 01       	movw	r20, r24
    1e3a:	4e 5f       	subi	r20, 0xFE	; 254
    1e3c:	5f 4f       	sbci	r21, 0xFF	; 255
    1e3e:	24 17       	cp	r18, r20
    1e40:	35 07       	cpc	r19, r21
    1e42:	48 f0       	brcs	.+18     	; 0x1e56 <malloc+0x120>
    1e44:	4e 0f       	add	r20, r30
    1e46:	5f 1f       	adc	r21, r31
    1e48:	50 93 d9 03 	sts	0x03D9, r21	; 0x8003d9 <__brkval+0x1>
    1e4c:	40 93 d8 03 	sts	0x03D8, r20	; 0x8003d8 <__brkval>
    1e50:	81 93       	st	Z+, r24
    1e52:	91 93       	st	Z+, r25
    1e54:	02 c0       	rjmp	.+4      	; 0x1e5a <malloc+0x124>
    1e56:	e0 e0       	ldi	r30, 0x00	; 0
    1e58:	f0 e0       	ldi	r31, 0x00	; 0
    1e5a:	cf 01       	movw	r24, r30
    1e5c:	df 91       	pop	r29
    1e5e:	cf 91       	pop	r28
    1e60:	1f 91       	pop	r17
    1e62:	0f 91       	pop	r16
    1e64:	08 95       	ret

00001e66 <free>:
    1e66:	cf 93       	push	r28
    1e68:	df 93       	push	r29
    1e6a:	00 97       	sbiw	r24, 0x00	; 0
    1e6c:	09 f4       	brne	.+2      	; 0x1e70 <free+0xa>
    1e6e:	81 c0       	rjmp	.+258    	; 0x1f72 <free+0x10c>
    1e70:	fc 01       	movw	r30, r24
    1e72:	32 97       	sbiw	r30, 0x02	; 2
    1e74:	13 82       	std	Z+3, r1	; 0x03
    1e76:	12 82       	std	Z+2, r1	; 0x02
    1e78:	a0 91 da 03 	lds	r26, 0x03DA	; 0x8003da <__flp>
    1e7c:	b0 91 db 03 	lds	r27, 0x03DB	; 0x8003db <__flp+0x1>
    1e80:	10 97       	sbiw	r26, 0x00	; 0
    1e82:	81 f4       	brne	.+32     	; 0x1ea4 <free+0x3e>
    1e84:	20 81       	ld	r18, Z
    1e86:	31 81       	ldd	r19, Z+1	; 0x01
    1e88:	82 0f       	add	r24, r18
    1e8a:	93 1f       	adc	r25, r19
    1e8c:	20 91 d8 03 	lds	r18, 0x03D8	; 0x8003d8 <__brkval>
    1e90:	30 91 d9 03 	lds	r19, 0x03D9	; 0x8003d9 <__brkval+0x1>
    1e94:	28 17       	cp	r18, r24
    1e96:	39 07       	cpc	r19, r25
    1e98:	51 f5       	brne	.+84     	; 0x1eee <free+0x88>
    1e9a:	f0 93 d9 03 	sts	0x03D9, r31	; 0x8003d9 <__brkval+0x1>
    1e9e:	e0 93 d8 03 	sts	0x03D8, r30	; 0x8003d8 <__brkval>
    1ea2:	67 c0       	rjmp	.+206    	; 0x1f72 <free+0x10c>
    1ea4:	ed 01       	movw	r28, r26
    1ea6:	20 e0       	ldi	r18, 0x00	; 0
    1ea8:	30 e0       	ldi	r19, 0x00	; 0
    1eaa:	ce 17       	cp	r28, r30
    1eac:	df 07       	cpc	r29, r31
    1eae:	40 f4       	brcc	.+16     	; 0x1ec0 <free+0x5a>
    1eb0:	4a 81       	ldd	r20, Y+2	; 0x02
    1eb2:	5b 81       	ldd	r21, Y+3	; 0x03
    1eb4:	9e 01       	movw	r18, r28
    1eb6:	41 15       	cp	r20, r1
    1eb8:	51 05       	cpc	r21, r1
    1eba:	f1 f0       	breq	.+60     	; 0x1ef8 <free+0x92>
    1ebc:	ea 01       	movw	r28, r20
    1ebe:	f5 cf       	rjmp	.-22     	; 0x1eaa <free+0x44>
    1ec0:	d3 83       	std	Z+3, r29	; 0x03
    1ec2:	c2 83       	std	Z+2, r28	; 0x02
    1ec4:	40 81       	ld	r20, Z
    1ec6:	51 81       	ldd	r21, Z+1	; 0x01
    1ec8:	84 0f       	add	r24, r20
    1eca:	95 1f       	adc	r25, r21
    1ecc:	c8 17       	cp	r28, r24
    1ece:	d9 07       	cpc	r29, r25
    1ed0:	59 f4       	brne	.+22     	; 0x1ee8 <free+0x82>
    1ed2:	88 81       	ld	r24, Y
    1ed4:	99 81       	ldd	r25, Y+1	; 0x01
    1ed6:	84 0f       	add	r24, r20
    1ed8:	95 1f       	adc	r25, r21
    1eda:	02 96       	adiw	r24, 0x02	; 2
    1edc:	91 83       	std	Z+1, r25	; 0x01
    1ede:	80 83       	st	Z, r24
    1ee0:	8a 81       	ldd	r24, Y+2	; 0x02
    1ee2:	9b 81       	ldd	r25, Y+3	; 0x03
    1ee4:	93 83       	std	Z+3, r25	; 0x03
    1ee6:	82 83       	std	Z+2, r24	; 0x02
    1ee8:	21 15       	cp	r18, r1
    1eea:	31 05       	cpc	r19, r1
    1eec:	29 f4       	brne	.+10     	; 0x1ef8 <free+0x92>
    1eee:	f0 93 db 03 	sts	0x03DB, r31	; 0x8003db <__flp+0x1>
    1ef2:	e0 93 da 03 	sts	0x03DA, r30	; 0x8003da <__flp>
    1ef6:	3d c0       	rjmp	.+122    	; 0x1f72 <free+0x10c>
    1ef8:	e9 01       	movw	r28, r18
    1efa:	fb 83       	std	Y+3, r31	; 0x03
    1efc:	ea 83       	std	Y+2, r30	; 0x02
    1efe:	49 91       	ld	r20, Y+
    1f00:	59 91       	ld	r21, Y+
    1f02:	c4 0f       	add	r28, r20
    1f04:	d5 1f       	adc	r29, r21
    1f06:	ec 17       	cp	r30, r28
    1f08:	fd 07       	cpc	r31, r29
    1f0a:	61 f4       	brne	.+24     	; 0x1f24 <free+0xbe>
    1f0c:	80 81       	ld	r24, Z
    1f0e:	91 81       	ldd	r25, Z+1	; 0x01
    1f10:	84 0f       	add	r24, r20
    1f12:	95 1f       	adc	r25, r21
    1f14:	02 96       	adiw	r24, 0x02	; 2
    1f16:	e9 01       	movw	r28, r18
    1f18:	99 83       	std	Y+1, r25	; 0x01
    1f1a:	88 83       	st	Y, r24
    1f1c:	82 81       	ldd	r24, Z+2	; 0x02
    1f1e:	93 81       	ldd	r25, Z+3	; 0x03
    1f20:	9b 83       	std	Y+3, r25	; 0x03
    1f22:	8a 83       	std	Y+2, r24	; 0x02
    1f24:	e0 e0       	ldi	r30, 0x00	; 0
    1f26:	f0 e0       	ldi	r31, 0x00	; 0
    1f28:	12 96       	adiw	r26, 0x02	; 2
    1f2a:	8d 91       	ld	r24, X+
    1f2c:	9c 91       	ld	r25, X
    1f2e:	13 97       	sbiw	r26, 0x03	; 3
    1f30:	00 97       	sbiw	r24, 0x00	; 0
    1f32:	19 f0       	breq	.+6      	; 0x1f3a <free+0xd4>
    1f34:	fd 01       	movw	r30, r26
    1f36:	dc 01       	movw	r26, r24
    1f38:	f7 cf       	rjmp	.-18     	; 0x1f28 <free+0xc2>
    1f3a:	8d 91       	ld	r24, X+
    1f3c:	9c 91       	ld	r25, X
    1f3e:	11 97       	sbiw	r26, 0x01	; 1
    1f40:	9d 01       	movw	r18, r26
    1f42:	2e 5f       	subi	r18, 0xFE	; 254
    1f44:	3f 4f       	sbci	r19, 0xFF	; 255
    1f46:	82 0f       	add	r24, r18
    1f48:	93 1f       	adc	r25, r19
    1f4a:	20 91 d8 03 	lds	r18, 0x03D8	; 0x8003d8 <__brkval>
    1f4e:	30 91 d9 03 	lds	r19, 0x03D9	; 0x8003d9 <__brkval+0x1>
    1f52:	28 17       	cp	r18, r24
    1f54:	39 07       	cpc	r19, r25
    1f56:	69 f4       	brne	.+26     	; 0x1f72 <free+0x10c>
    1f58:	30 97       	sbiw	r30, 0x00	; 0
    1f5a:	29 f4       	brne	.+10     	; 0x1f66 <free+0x100>
    1f5c:	10 92 db 03 	sts	0x03DB, r1	; 0x8003db <__flp+0x1>
    1f60:	10 92 da 03 	sts	0x03DA, r1	; 0x8003da <__flp>
    1f64:	02 c0       	rjmp	.+4      	; 0x1f6a <free+0x104>
    1f66:	13 82       	std	Z+3, r1	; 0x03
    1f68:	12 82       	std	Z+2, r1	; 0x02
    1f6a:	b0 93 d9 03 	sts	0x03D9, r27	; 0x8003d9 <__brkval+0x1>
    1f6e:	a0 93 d8 03 	sts	0x03D8, r26	; 0x8003d8 <__brkval>
    1f72:	df 91       	pop	r29
    1f74:	cf 91       	pop	r28
    1f76:	08 95       	ret

00001f78 <isspace>:
    1f78:	91 11       	cpse	r25, r1
    1f7a:	2f c1       	rjmp	.+606    	; 0x21da <__ctype_isfalse>
    1f7c:	80 32       	cpi	r24, 0x20	; 32
    1f7e:	19 f0       	breq	.+6      	; 0x1f86 <isspace+0xe>
    1f80:	89 50       	subi	r24, 0x09	; 9
    1f82:	85 50       	subi	r24, 0x05	; 5
    1f84:	d0 f7       	brcc	.-12     	; 0x1f7a <isspace+0x2>
    1f86:	08 95       	ret

00001f88 <strchr_P>:
    1f88:	fc 01       	movw	r30, r24
    1f8a:	05 90       	lpm	r0, Z+
    1f8c:	06 16       	cp	r0, r22
    1f8e:	21 f0       	breq	.+8      	; 0x1f98 <strchr_P+0x10>
    1f90:	00 20       	and	r0, r0
    1f92:	d9 f7       	brne	.-10     	; 0x1f8a <strchr_P+0x2>
    1f94:	c0 01       	movw	r24, r0
    1f96:	08 95       	ret
    1f98:	31 97       	sbiw	r30, 0x01	; 1
    1f9a:	cf 01       	movw	r24, r30
    1f9c:	08 95       	ret

00001f9e <strnlen_P>:
    1f9e:	fc 01       	movw	r30, r24
    1fa0:	05 90       	lpm	r0, Z+
    1fa2:	61 50       	subi	r22, 0x01	; 1
    1fa4:	70 40       	sbci	r23, 0x00	; 0
    1fa6:	01 10       	cpse	r0, r1
    1fa8:	d8 f7       	brcc	.-10     	; 0x1fa0 <strnlen_P+0x2>
    1faa:	80 95       	com	r24
    1fac:	90 95       	com	r25
    1fae:	8e 0f       	add	r24, r30
    1fb0:	9f 1f       	adc	r25, r31
    1fb2:	08 95       	ret

00001fb4 <memset>:
    1fb4:	dc 01       	movw	r26, r24
    1fb6:	01 c0       	rjmp	.+2      	; 0x1fba <memset+0x6>
    1fb8:	6d 93       	st	X+, r22
    1fba:	41 50       	subi	r20, 0x01	; 1
    1fbc:	50 40       	sbci	r21, 0x00	; 0
    1fbe:	e0 f7       	brcc	.-8      	; 0x1fb8 <memset+0x4>
    1fc0:	08 95       	ret

00001fc2 <strnlen>:
    1fc2:	fc 01       	movw	r30, r24
    1fc4:	61 50       	subi	r22, 0x01	; 1
    1fc6:	70 40       	sbci	r23, 0x00	; 0
    1fc8:	01 90       	ld	r0, Z+
    1fca:	01 10       	cpse	r0, r1
    1fcc:	d8 f7       	brcc	.-10     	; 0x1fc4 <strnlen+0x2>
    1fce:	80 95       	com	r24
    1fd0:	90 95       	com	r25
    1fd2:	8e 0f       	add	r24, r30
    1fd4:	9f 1f       	adc	r25, r31
    1fd6:	08 95       	ret

00001fd8 <strrev>:
    1fd8:	dc 01       	movw	r26, r24
    1fda:	fc 01       	movw	r30, r24
    1fdc:	67 2f       	mov	r22, r23
    1fde:	71 91       	ld	r23, Z+
    1fe0:	77 23       	and	r23, r23
    1fe2:	e1 f7       	brne	.-8      	; 0x1fdc <strrev+0x4>
    1fe4:	32 97       	sbiw	r30, 0x02	; 2
    1fe6:	04 c0       	rjmp	.+8      	; 0x1ff0 <strrev+0x18>
    1fe8:	7c 91       	ld	r23, X
    1fea:	6d 93       	st	X+, r22
    1fec:	70 83       	st	Z, r23
    1fee:	62 91       	ld	r22, -Z
    1ff0:	ae 17       	cp	r26, r30
    1ff2:	bf 07       	cpc	r27, r31
    1ff4:	c8 f3       	brcs	.-14     	; 0x1fe8 <strrev+0x10>
    1ff6:	08 95       	ret

00001ff8 <fgetc>:
    1ff8:	cf 93       	push	r28
    1ffa:	df 93       	push	r29
    1ffc:	ec 01       	movw	r28, r24
    1ffe:	2b 81       	ldd	r18, Y+3	; 0x03
    2000:	20 ff       	sbrs	r18, 0
    2002:	33 c0       	rjmp	.+102    	; 0x206a <fgetc+0x72>
    2004:	26 ff       	sbrs	r18, 6
    2006:	0a c0       	rjmp	.+20     	; 0x201c <fgetc+0x24>
    2008:	2f 7b       	andi	r18, 0xBF	; 191
    200a:	2b 83       	std	Y+3, r18	; 0x03
    200c:	8e 81       	ldd	r24, Y+6	; 0x06
    200e:	9f 81       	ldd	r25, Y+7	; 0x07
    2010:	01 96       	adiw	r24, 0x01	; 1
    2012:	9f 83       	std	Y+7, r25	; 0x07
    2014:	8e 83       	std	Y+6, r24	; 0x06
    2016:	8a 81       	ldd	r24, Y+2	; 0x02
    2018:	90 e0       	ldi	r25, 0x00	; 0
    201a:	29 c0       	rjmp	.+82     	; 0x206e <fgetc+0x76>
    201c:	22 ff       	sbrs	r18, 2
    201e:	0f c0       	rjmp	.+30     	; 0x203e <fgetc+0x46>
    2020:	e8 81       	ld	r30, Y
    2022:	f9 81       	ldd	r31, Y+1	; 0x01
    2024:	80 81       	ld	r24, Z
    2026:	08 2e       	mov	r0, r24
    2028:	00 0c       	add	r0, r0
    202a:	99 0b       	sbc	r25, r25
    202c:	00 97       	sbiw	r24, 0x00	; 0
    202e:	19 f4       	brne	.+6      	; 0x2036 <fgetc+0x3e>
    2030:	20 62       	ori	r18, 0x20	; 32
    2032:	2b 83       	std	Y+3, r18	; 0x03
    2034:	1a c0       	rjmp	.+52     	; 0x206a <fgetc+0x72>
    2036:	31 96       	adiw	r30, 0x01	; 1
    2038:	f9 83       	std	Y+1, r31	; 0x01
    203a:	e8 83       	st	Y, r30
    203c:	0e c0       	rjmp	.+28     	; 0x205a <fgetc+0x62>
    203e:	ea 85       	ldd	r30, Y+10	; 0x0a
    2040:	fb 85       	ldd	r31, Y+11	; 0x0b
    2042:	09 95       	icall
    2044:	97 ff       	sbrs	r25, 7
    2046:	09 c0       	rjmp	.+18     	; 0x205a <fgetc+0x62>
    2048:	2b 81       	ldd	r18, Y+3	; 0x03
    204a:	01 96       	adiw	r24, 0x01	; 1
    204c:	11 f0       	breq	.+4      	; 0x2052 <fgetc+0x5a>
    204e:	80 e2       	ldi	r24, 0x20	; 32
    2050:	01 c0       	rjmp	.+2      	; 0x2054 <fgetc+0x5c>
    2052:	80 e1       	ldi	r24, 0x10	; 16
    2054:	82 2b       	or	r24, r18
    2056:	8b 83       	std	Y+3, r24	; 0x03
    2058:	08 c0       	rjmp	.+16     	; 0x206a <fgetc+0x72>
    205a:	2e 81       	ldd	r18, Y+6	; 0x06
    205c:	3f 81       	ldd	r19, Y+7	; 0x07
    205e:	2f 5f       	subi	r18, 0xFF	; 255
    2060:	3f 4f       	sbci	r19, 0xFF	; 255
    2062:	3f 83       	std	Y+7, r19	; 0x07
    2064:	2e 83       	std	Y+6, r18	; 0x06
    2066:	99 27       	eor	r25, r25
    2068:	02 c0       	rjmp	.+4      	; 0x206e <fgetc+0x76>
    206a:	8f ef       	ldi	r24, 0xFF	; 255
    206c:	9f ef       	ldi	r25, 0xFF	; 255
    206e:	df 91       	pop	r29
    2070:	cf 91       	pop	r28
    2072:	08 95       	ret

00002074 <fputc>:
    2074:	0f 93       	push	r16
    2076:	1f 93       	push	r17
    2078:	cf 93       	push	r28
    207a:	df 93       	push	r29
    207c:	fb 01       	movw	r30, r22
    207e:	23 81       	ldd	r18, Z+3	; 0x03
    2080:	21 fd       	sbrc	r18, 1
    2082:	03 c0       	rjmp	.+6      	; 0x208a <fputc+0x16>
    2084:	8f ef       	ldi	r24, 0xFF	; 255
    2086:	9f ef       	ldi	r25, 0xFF	; 255
    2088:	2c c0       	rjmp	.+88     	; 0x20e2 <fputc+0x6e>
    208a:	22 ff       	sbrs	r18, 2
    208c:	16 c0       	rjmp	.+44     	; 0x20ba <fputc+0x46>
    208e:	46 81       	ldd	r20, Z+6	; 0x06
    2090:	57 81       	ldd	r21, Z+7	; 0x07
    2092:	24 81       	ldd	r18, Z+4	; 0x04
    2094:	35 81       	ldd	r19, Z+5	; 0x05
    2096:	42 17       	cp	r20, r18
    2098:	53 07       	cpc	r21, r19
    209a:	44 f4       	brge	.+16     	; 0x20ac <fputc+0x38>
    209c:	a0 81       	ld	r26, Z
    209e:	b1 81       	ldd	r27, Z+1	; 0x01
    20a0:	9d 01       	movw	r18, r26
    20a2:	2f 5f       	subi	r18, 0xFF	; 255
    20a4:	3f 4f       	sbci	r19, 0xFF	; 255
    20a6:	31 83       	std	Z+1, r19	; 0x01
    20a8:	20 83       	st	Z, r18
    20aa:	8c 93       	st	X, r24
    20ac:	26 81       	ldd	r18, Z+6	; 0x06
    20ae:	37 81       	ldd	r19, Z+7	; 0x07
    20b0:	2f 5f       	subi	r18, 0xFF	; 255
    20b2:	3f 4f       	sbci	r19, 0xFF	; 255
    20b4:	37 83       	std	Z+7, r19	; 0x07
    20b6:	26 83       	std	Z+6, r18	; 0x06
    20b8:	14 c0       	rjmp	.+40     	; 0x20e2 <fputc+0x6e>
    20ba:	8b 01       	movw	r16, r22
    20bc:	ec 01       	movw	r28, r24
    20be:	fb 01       	movw	r30, r22
    20c0:	00 84       	ldd	r0, Z+8	; 0x08
    20c2:	f1 85       	ldd	r31, Z+9	; 0x09
    20c4:	e0 2d       	mov	r30, r0
    20c6:	09 95       	icall
    20c8:	89 2b       	or	r24, r25
    20ca:	e1 f6       	brne	.-72     	; 0x2084 <fputc+0x10>
    20cc:	d8 01       	movw	r26, r16
    20ce:	16 96       	adiw	r26, 0x06	; 6
    20d0:	8d 91       	ld	r24, X+
    20d2:	9c 91       	ld	r25, X
    20d4:	17 97       	sbiw	r26, 0x07	; 7
    20d6:	01 96       	adiw	r24, 0x01	; 1
    20d8:	17 96       	adiw	r26, 0x07	; 7
    20da:	9c 93       	st	X, r25
    20dc:	8e 93       	st	-X, r24
    20de:	16 97       	sbiw	r26, 0x06	; 6
    20e0:	ce 01       	movw	r24, r28
    20e2:	df 91       	pop	r29
    20e4:	cf 91       	pop	r28
    20e6:	1f 91       	pop	r17
    20e8:	0f 91       	pop	r16
    20ea:	08 95       	ret

000020ec <ungetc>:
    20ec:	fb 01       	movw	r30, r22
    20ee:	23 81       	ldd	r18, Z+3	; 0x03
    20f0:	20 ff       	sbrs	r18, 0
    20f2:	12 c0       	rjmp	.+36     	; 0x2118 <ungetc+0x2c>
    20f4:	26 fd       	sbrc	r18, 6
    20f6:	10 c0       	rjmp	.+32     	; 0x2118 <ungetc+0x2c>
    20f8:	8f 3f       	cpi	r24, 0xFF	; 255
    20fa:	3f ef       	ldi	r19, 0xFF	; 255
    20fc:	93 07       	cpc	r25, r19
    20fe:	61 f0       	breq	.+24     	; 0x2118 <ungetc+0x2c>
    2100:	82 83       	std	Z+2, r24	; 0x02
    2102:	2f 7d       	andi	r18, 0xDF	; 223
    2104:	20 64       	ori	r18, 0x40	; 64
    2106:	23 83       	std	Z+3, r18	; 0x03
    2108:	26 81       	ldd	r18, Z+6	; 0x06
    210a:	37 81       	ldd	r19, Z+7	; 0x07
    210c:	21 50       	subi	r18, 0x01	; 1
    210e:	31 09       	sbc	r19, r1
    2110:	37 83       	std	Z+7, r19	; 0x07
    2112:	26 83       	std	Z+6, r18	; 0x06
    2114:	99 27       	eor	r25, r25
    2116:	08 95       	ret
    2118:	8f ef       	ldi	r24, 0xFF	; 255
    211a:	9f ef       	ldi	r25, 0xFF	; 255
    211c:	08 95       	ret

0000211e <__ultoa_invert>:
    211e:	fa 01       	movw	r30, r20
    2120:	aa 27       	eor	r26, r26
    2122:	28 30       	cpi	r18, 0x08	; 8
    2124:	51 f1       	breq	.+84     	; 0x217a <__ultoa_invert+0x5c>
    2126:	20 31       	cpi	r18, 0x10	; 16
    2128:	81 f1       	breq	.+96     	; 0x218a <__ultoa_invert+0x6c>
    212a:	e8 94       	clt
    212c:	6f 93       	push	r22
    212e:	6e 7f       	andi	r22, 0xFE	; 254
    2130:	6e 5f       	subi	r22, 0xFE	; 254
    2132:	7f 4f       	sbci	r23, 0xFF	; 255
    2134:	8f 4f       	sbci	r24, 0xFF	; 255
    2136:	9f 4f       	sbci	r25, 0xFF	; 255
    2138:	af 4f       	sbci	r26, 0xFF	; 255
    213a:	b1 e0       	ldi	r27, 0x01	; 1
    213c:	3e d0       	rcall	.+124    	; 0x21ba <__ultoa_invert+0x9c>
    213e:	b4 e0       	ldi	r27, 0x04	; 4
    2140:	3c d0       	rcall	.+120    	; 0x21ba <__ultoa_invert+0x9c>
    2142:	67 0f       	add	r22, r23
    2144:	78 1f       	adc	r23, r24
    2146:	89 1f       	adc	r24, r25
    2148:	9a 1f       	adc	r25, r26
    214a:	a1 1d       	adc	r26, r1
    214c:	68 0f       	add	r22, r24
    214e:	79 1f       	adc	r23, r25
    2150:	8a 1f       	adc	r24, r26
    2152:	91 1d       	adc	r25, r1
    2154:	a1 1d       	adc	r26, r1
    2156:	6a 0f       	add	r22, r26
    2158:	71 1d       	adc	r23, r1
    215a:	81 1d       	adc	r24, r1
    215c:	91 1d       	adc	r25, r1
    215e:	a1 1d       	adc	r26, r1
    2160:	20 d0       	rcall	.+64     	; 0x21a2 <__ultoa_invert+0x84>
    2162:	09 f4       	brne	.+2      	; 0x2166 <__ultoa_invert+0x48>
    2164:	68 94       	set
    2166:	3f 91       	pop	r19
    2168:	2a e0       	ldi	r18, 0x0A	; 10
    216a:	26 9f       	mul	r18, r22
    216c:	11 24       	eor	r1, r1
    216e:	30 19       	sub	r19, r0
    2170:	30 5d       	subi	r19, 0xD0	; 208
    2172:	31 93       	st	Z+, r19
    2174:	de f6       	brtc	.-74     	; 0x212c <__ultoa_invert+0xe>
    2176:	cf 01       	movw	r24, r30
    2178:	08 95       	ret
    217a:	46 2f       	mov	r20, r22
    217c:	47 70       	andi	r20, 0x07	; 7
    217e:	40 5d       	subi	r20, 0xD0	; 208
    2180:	41 93       	st	Z+, r20
    2182:	b3 e0       	ldi	r27, 0x03	; 3
    2184:	0f d0       	rcall	.+30     	; 0x21a4 <__ultoa_invert+0x86>
    2186:	c9 f7       	brne	.-14     	; 0x217a <__ultoa_invert+0x5c>
    2188:	f6 cf       	rjmp	.-20     	; 0x2176 <__ultoa_invert+0x58>
    218a:	46 2f       	mov	r20, r22
    218c:	4f 70       	andi	r20, 0x0F	; 15
    218e:	40 5d       	subi	r20, 0xD0	; 208
    2190:	4a 33       	cpi	r20, 0x3A	; 58
    2192:	18 f0       	brcs	.+6      	; 0x219a <__ultoa_invert+0x7c>
    2194:	49 5d       	subi	r20, 0xD9	; 217
    2196:	31 fd       	sbrc	r19, 1
    2198:	40 52       	subi	r20, 0x20	; 32
    219a:	41 93       	st	Z+, r20
    219c:	02 d0       	rcall	.+4      	; 0x21a2 <__ultoa_invert+0x84>
    219e:	a9 f7       	brne	.-22     	; 0x218a <__ultoa_invert+0x6c>
    21a0:	ea cf       	rjmp	.-44     	; 0x2176 <__ultoa_invert+0x58>
    21a2:	b4 e0       	ldi	r27, 0x04	; 4
    21a4:	a6 95       	lsr	r26
    21a6:	97 95       	ror	r25
    21a8:	87 95       	ror	r24
    21aa:	77 95       	ror	r23
    21ac:	67 95       	ror	r22
    21ae:	ba 95       	dec	r27
    21b0:	c9 f7       	brne	.-14     	; 0x21a4 <__ultoa_invert+0x86>
    21b2:	00 97       	sbiw	r24, 0x00	; 0
    21b4:	61 05       	cpc	r22, r1
    21b6:	71 05       	cpc	r23, r1
    21b8:	08 95       	ret
    21ba:	9b 01       	movw	r18, r22
    21bc:	ac 01       	movw	r20, r24
    21be:	0a 2e       	mov	r0, r26
    21c0:	06 94       	lsr	r0
    21c2:	57 95       	ror	r21
    21c4:	47 95       	ror	r20
    21c6:	37 95       	ror	r19
    21c8:	27 95       	ror	r18
    21ca:	ba 95       	dec	r27
    21cc:	c9 f7       	brne	.-14     	; 0x21c0 <__ultoa_invert+0xa2>
    21ce:	62 0f       	add	r22, r18
    21d0:	73 1f       	adc	r23, r19
    21d2:	84 1f       	adc	r24, r20
    21d4:	95 1f       	adc	r25, r21
    21d6:	a0 1d       	adc	r26, r0
    21d8:	08 95       	ret

000021da <__ctype_isfalse>:
    21da:	99 27       	eor	r25, r25
    21dc:	88 27       	eor	r24, r24

000021de <__ctype_istrue>:
    21de:	08 95       	ret

000021e0 <__prologue_saves__>:
    21e0:	2f 92       	push	r2
    21e2:	3f 92       	push	r3
    21e4:	4f 92       	push	r4
    21e6:	5f 92       	push	r5
    21e8:	6f 92       	push	r6
    21ea:	7f 92       	push	r7
    21ec:	8f 92       	push	r8
    21ee:	9f 92       	push	r9
    21f0:	af 92       	push	r10
    21f2:	bf 92       	push	r11
    21f4:	cf 92       	push	r12
    21f6:	df 92       	push	r13
    21f8:	ef 92       	push	r14
    21fa:	ff 92       	push	r15
    21fc:	0f 93       	push	r16
    21fe:	1f 93       	push	r17
    2200:	cf 93       	push	r28
    2202:	df 93       	push	r29
    2204:	cd b7       	in	r28, 0x3d	; 61
    2206:	de b7       	in	r29, 0x3e	; 62
    2208:	ca 1b       	sub	r28, r26
    220a:	db 0b       	sbc	r29, r27
    220c:	0f b6       	in	r0, 0x3f	; 63
    220e:	f8 94       	cli
    2210:	de bf       	out	0x3e, r29	; 62
    2212:	0f be       	out	0x3f, r0	; 63
    2214:	cd bf       	out	0x3d, r28	; 61
    2216:	09 94       	ijmp

00002218 <__epilogue_restores__>:
    2218:	2a 88       	ldd	r2, Y+18	; 0x12
    221a:	39 88       	ldd	r3, Y+17	; 0x11
    221c:	48 88       	ldd	r4, Y+16	; 0x10
    221e:	5f 84       	ldd	r5, Y+15	; 0x0f
    2220:	6e 84       	ldd	r6, Y+14	; 0x0e
    2222:	7d 84       	ldd	r7, Y+13	; 0x0d
    2224:	8c 84       	ldd	r8, Y+12	; 0x0c
    2226:	9b 84       	ldd	r9, Y+11	; 0x0b
    2228:	aa 84       	ldd	r10, Y+10	; 0x0a
    222a:	b9 84       	ldd	r11, Y+9	; 0x09
    222c:	c8 84       	ldd	r12, Y+8	; 0x08
    222e:	df 80       	ldd	r13, Y+7	; 0x07
    2230:	ee 80       	ldd	r14, Y+6	; 0x06
    2232:	fd 80       	ldd	r15, Y+5	; 0x05
    2234:	0c 81       	ldd	r16, Y+4	; 0x04
    2236:	1b 81       	ldd	r17, Y+3	; 0x03
    2238:	aa 81       	ldd	r26, Y+2	; 0x02
    223a:	b9 81       	ldd	r27, Y+1	; 0x01
    223c:	ce 0f       	add	r28, r30
    223e:	d1 1d       	adc	r29, r1
    2240:	0f b6       	in	r0, 0x3f	; 63
    2242:	f8 94       	cli
    2244:	de bf       	out	0x3e, r29	; 62
    2246:	0f be       	out	0x3f, r0	; 63
    2248:	cd bf       	out	0x3d, r28	; 61
    224a:	ed 01       	movw	r28, r26
    224c:	08 95       	ret

0000224e <_exit>:
    224e:	f8 94       	cli

00002250 <__stop_program>:
    2250:	ff cf       	rjmp	.-2      	; 0x2250 <__stop_program>
